PROGRAMA: fact_recurs
 Salida de comprobacion de la instruccion que hay en un ciclo en cada etapa

Para cada ciclo, en dos filas se representan las etapas y cortocircuitos
Ademas, se indica la prediccion si es una instruccion de secuenciamiento.
Tambien se muestra la comprobacion de la prediccion de la instruccion 
que ocupa la etapa ALU.
En la 1a fila se representan los cortos. En la 2a fila el ciclo y las etapasy los riesgos de datos y secuenciamiento
Ademas, en la 1a fila se muestra la prediccion y la comprobacion de una prediccion previa

 Descripcion de las etapas DL, ALU, M, FMTL y ES
junto con la descripcion de cortocircuitos fuente y destino
                              DESTINOS de CORTO:   C4L2    C2L2
                                                    C3L2    C1L2
                                                      C4L1    C2L1
                                                       C3L1    C1L1
                               FUENTES de CORTO:                  C1    C2 C3  C4
                                       Acronimos:   0 / 1    0 / 1  1     2  3   4
                                                                                         RIESGOS
ciclo  CP        BUS          DL                 | DL    | ALU   | M   | FMTL| ES       R.DATOS R.SECU
       direc.    Inst. hex.     ensamblador
  
                                                   00 00   00 00                                      
    1  00000004  10001117    addi x0 , x0 , x000 | DL    | nop  | nop  | nop | nop      RD:  0  RS:  0
  
                                                   00 00   00 00                                      
    2  00000008  00010113   auipc x2 , x10001    | DL    | A    | nop  | nop | nop      RD:  0  RS:  0
  
                                                   00 00   00 00                                      
    3  0000000C  FE010113    addi x2 , x2 , x000 | DL    | A    | R    | nop | nop      RD:  0  RS:  0
  
                                                   00 00   00 01  1                                   
    4  00000010  000000B3    addi x2 , x2 , xFE0 | DL    | A    | R    | R   | nop      RD:  0  RS:  0
  
                                                   00 00   00 11  1      2                            
    5  00000014  000001B3     add x1 , x0 , x0   | DL    | A    | R    | R   | E        RD:  0  RS:  0
  
                                                   00 00   00 00                                      
    6  00000018  00000233     add x3 , x0 , x0   | DL    | A    | R    | R   | E        RD:  0  RS:  0
  
                                                   00 00   00 00                                      
    7  0000001C  000002B3     add x4 , x0 , x0   | DL    | A    | R    | R   | E        RD:  0  RS:  0
  
                                                   00 00   00 00                                      
    8  00000020  00000333     add x5 , x0 , x0   | DL    | A    | R    | R   | E        RD:  0  RS:  0
  
                                                   00 00   00 00                                      
    9  00000024  000003B3     add x6 , x0 , x0   | DL    | A    | R    | R   | E        RD:  0  RS:  0
  
                                                   00 00   00 00                                      
   10  00000028  00000433     add x7 , x0 , x0   | DL    | A    | R    | R   | E        RD:  0  RS:  0
  
                                                   00 00   00 00                                      
   11  0000002C  000004B3     add x8 , x0 , x0   | DL    | A    | R    | R   | E        RD:  0  RS:  0
  
                                                   00 00   00 00                                      
   12  00000030  00000533     add x9 , x0 , x0   | DL    | A    | R    | R   | E        RD:  0  RS:  0
  
                                                   00 00   00 00                                      
   13  00000034  000005B3     add x10, x0 , x0   | DL    | A    | R    | R   | E        RD:  0  RS:  0
  
                                                   00 00   00 00                                      
   14  00000038  00000633     add x11, x0 , x0   | DL    | A    | R    | R   | E        RD:  0  RS:  0
  
                                                   00 00   00 00                                      
   15  0000003C  000006B3     add x12, x0 , x0   | DL    | A    | R    | R   | E        RD:  0  RS:  0
  
                                                   00 00   00 00                                      
   16  00000040  00000733     add x13, x0 , x0   | DL    | A    | R    | R   | E        RD:  0  RS:  0
  
                                                   00 00   00 00                                      
   17  00000044  000007B3     add x14, x0 , x0   | DL    | A    | R    | R   | E        RD:  0  RS:  0
  
                                                   00 00   00 00                                      
   18  00000048  00000833     add x15, x0 , x0   | DL    | A    | R    | R   | E        RD:  0  RS:  0
  
                                                   00 00   00 00                                      
   19  0000004C  000008B3     add x16, x0 , x0   | DL    | A    | R    | R   | E        RD:  0  RS:  0
  
                                                   00 00   00 00                                      
   20  00000050  00000933     add x17, x0 , x0   | DL    | A    | R    | R   | E        RD:  0  RS:  0
  
                                                   00 00   00 00                                      
   21  00000054  000009B3     add x18, x0 , x0   | DL    | A    | R    | R   | E        RD:  0  RS:  0
  
                                                   00 00   00 00                                      
   22  00000058  00000A33     add x19, x0 , x0   | DL    | A    | R    | R   | E        RD:  0  RS:  0
  
                                                   00 00   00 00                                      
   23  0000005C  00000AB3     add x20, x0 , x0   | DL    | A    | R    | R   | E        RD:  0  RS:  0
  
                                                   00 00   00 00                                      
   24  00000060  00000B33     add x21, x0 , x0   | DL    | A    | R    | R   | E        RD:  0  RS:  0
  
                                                   00 00   00 00                                      
   25  00000064  00000BB3     add x22, x0 , x0   | DL    | A    | R    | R   | E        RD:  0  RS:  0
  
                                                   00 00   00 00                                      
   26  00000068  00000C33     add x23, x0 , x0   | DL    | A    | R    | R   | E        RD:  0  RS:  0
  
                                                   00 00   00 00                                      
   27  0000006C  00000CB3     add x24, x0 , x0   | DL    | A    | R    | R   | E        RD:  0  RS:  0
  
                                                   00 00   00 00                                      
   28  00000070  00000D33     add x25, x0 , x0   | DL    | A    | R    | R   | E        RD:  0  RS:  0
  
                                                   00 00   00 00                                      
   29  00000074  00000DB3     add x26, x0 , x0   | DL    | A    | R    | R   | E        RD:  0  RS:  0
  
                                                   00 00   00 00                                      
   30  00000078  00000E33     add x27, x0 , x0   | DL    | A    | R    | R   | E        RD:  0  RS:  0
  
                                                   00 00   00 00                                      
   31  0000007C  00000EB3     add x28, x0 , x0   | DL    | A    | R    | R   | E        RD:  0  RS:  0
  
                                                   00 00   00 00                                      
   32  00000080  00000F33     add x29, x0 , x0   | DL    | A    | R    | R   | E        RD:  0  RS:  0
  
                                                   00 00   00 00                                      
   33  00000084  00000FB3     add x30, x0 , x0   | DL    | A    | R    | R   | E        RD:  0  RS:  0
  
                                                   00 00   00 00                                      
   34  00000088  144000EF     add x31, x0 , x0   | DL    | A    | R    | R   | E        RD:  0  RS:  0
  
                                                   00 00   00 00                                      
   35  000001C8  00000013     jal x1 ,    x000A2 | DL    | A    | R    | R   | E        RD:  0  RS:  1
  
                                                   00 00   00 00                                      
   36  000001CC  100007B7    addi x0 , x0 , x000 | DLN   | R    | R    | R   | E        RD:  0  RS:  0
  
                                                   00 00   00 00                                      
   37  000001D0  0007A503     lui x15, x10000    | DL    | AN   | R    | R   | E        RD:  0  RS:  0
  
                                                   00 00   00 00                                      
   38  000001D4  00100793      lw x10, x000(x15) | DL    | A    | RN   | R   | E        RD:  0  RS:  0
  
                                                   00 00   00 01  1                                   
   39  000001D8  02A7F463    addi x15, x0 , x001 | DL    | A    | R    | RN  | E        RD:  0  RS:  0
  
                                                   00 01   00 00           3            Pre: SE       
   40  000001DC  FF010113    bgeu x15, x10, x014 | DLB   | A    | M    | R   | EN       RD:  1  RS:  0
  
                                                   01 10   10 01  1      2 3   4        Pre: SE       
   41  000001DC  FF010113    bgeu x15, x10, x014 | DL    | nop  | R    | F   | E        RD:  0  RS:  0
  
                                                   00 00   00 10         2                      CPr: C
   42  000001E0  00112623    addi x2 , x2 , xFF0 | DL    | CPr  | nop  | R   | E        RD:  0  RS:  0
  
                                                   00 00   00 00                                      
   43  000001E4  F7DFF0EF      sw x1 , x00C(x2 ) | DL    | A    | -    | nop | E        RD:  0  RS:  0
  
                                                   00 00   00 01  1                                   
   44  0000015C  00000013     jal x1 ,    xFFFBE | DL    | A    | R    | -   | nop      RD:  0  RS:  1
  
                                                   00 00   00 00                                      
   45  00000160  FF010113    addi x0 , x0 , x000 | DLN   | R    | M    | R   | -        RD:  0  RS:  0
  
                                                   00 10   00 00               4                      
   46  00000164  00812423    addi x2 , x2 , xFF0 | DL    | AN   | R    | -   | E        RD:  0  RS:  0
  
                                                   00 00   00 00                                      
   47  00000168  00050413      sw x8 , x008(x2 ) | DL    | A    | RN   | R     -        RD:  0  RS:  0
  
                                                   00 00   00 01  1                                   
   48  0000016C  FFF50513    addi x8 , x10, x000 | DL    | A    | R    | RN  | E        RD:  0  RS:  0
  
                                                   00 00   00 00                                      
   49  00000170  00112623    addi x10, x10, xFFF | DL    | A    | M    | R   | EN       RD:  0  RS:  0
  
                                                   00 10   00 00               4                      
   50  00000174  FD9FF0EF      sw x1 , x00C(x2 ) | DL    | A    | R    | -   | E        RD:  0  RS:  0
  
                                                   00 00   00 00                                      
   51  00000148  00000013     jal x1 ,    xFFFEC | DL    | A    | R    | R     -        RD:  0  RS:  1
  
                                                   00 00   00 00                                      
   52  0000014C  00100793    addi x0 , x0 , x000 | DLN   | R    | M    | R   | E        RD:  0  RS:  0
  
                                                   00 00   00 00                                      
   53  00000150  00A7E663    addi x15, x0 , x001 | DL    | AN   | R    | -   | E        RD:  0  RS:  0
  
                                                   00 00   00 00                        Pre: SE       
   54  00000154  00100513    bltu x15, x10, x006 | DL    | A    | RN   | R     -        RD:  0  RS:  0
  
                                                   00 00   00 01  1                             CPr: E
   55  00000158  00000013    addi x10, x0 , x001 | DL    | CPr  | R    | RN  | E        RD:  0  RS:  0
  
                                                   00 00   00 00                                      
   56  0000015C  0040006F    addi x0 , x0 , x000 | DLN   | nop  | -    | R   | EN       RD:  0  RS:  0
  
                                                   00 00   00 00                                      
   57  0000015C  00000013     jal x0 ,    x00002 | DL    | AN   | nop  | -   | E        RD:  0  RS:  1
  
                                                   00 00   00 00                                      
   58  00000160  FF010113    addi x0 , x0 , x000 | DLN   | R    | RN   | nop | -        RD:  0  RS:  0
  
                                                   00 00   00 00                                      
   59  00000164  00812423    addi x2 , x2 , xFF0 | DL    | AN   | R    | RN  | nop      RD:  0  RS:  0
  
                                                   00 00   00 00                                      
   60  00000168  00050413      sw x8 , x008(x2 ) | DL    | A    | RN   | R   | EN       RD:  0  RS:  0
  
                                                   00 00   00 01  1                                   
   61  0000016C  FFF50513    addi x8 , x10, x000 | DL    | A    | R    | RN  | E        RD:  0  RS:  0
  
                                                   00 00   00 00                                      
   62  00000170  00112623    addi x10, x10, xFFF | DL    | A    | M    | R   | EN       RD:  0  RS:  0
  
                                                   00 10   00 00               4                      
   63  00000174  FD9FF0EF      sw x1 , x00C(x2 ) | DL    | A    | R    | -   | E        RD:  0  RS:  0
  
                                                   00 00   00 00                                      
   64  00000148  00000013     jal x1 ,    xFFFEC | DL    | A    | R    | R     -        RD:  0  RS:  1
  
                                                   00 00   00 00                                      
   65  0000014C  00100793    addi x0 , x0 , x000 | DLN   | R    | M    | R   | E        RD:  0  RS:  0
  
                                                   00 00   00 00                                      
   66  00000150  00A7E663    addi x15, x0 , x001 | DL    | AN   | R    | -   | E        RD:  0  RS:  0
  
                                                   00 00   00 00                        Pre: SE       
   67  00000154  00100513    bltu x15, x10, x006 | DL    | A    | RN   | R     -        RD:  0  RS:  0
  
                                                   00 00   00 01  1                             CPr: E
   68  00000158  00000013    addi x10, x0 , x001 | DL    | CPr  | R    | RN  | E        RD:  0  RS:  0
  
                                                   00 00   00 00                                      
   69  0000015C  0040006F    addi x0 , x0 , x000 | DLN   | nop  | -    | R   | EN       RD:  0  RS:  0
  
                                                   00 00   00 00                                      
   70  0000015C  00000013     jal x0 ,    x00002 | DL    | AN   | nop  | -   | E        RD:  0  RS:  1
  
                                                   00 00   00 00                                      
   71  00000160  FF010113    addi x0 , x0 , x000 | DLN   | R    | RN   | nop | -        RD:  0  RS:  0
  
                                                   00 00   00 00                                      
   72  00000164  00812423    addi x2 , x2 , xFF0 | DL    | AN   | R    | RN  | nop      RD:  0  RS:  0
  
                                                   00 00   00 00                                      
   73  00000168  00050413      sw x8 , x008(x2 ) | DL    | A    | RN   | R   | EN       RD:  0  RS:  0
  
                                                   00 00   00 01  1                                   
   74  0000016C  FFF50513    addi x8 , x10, x000 | DL    | A    | R    | RN  | E        RD:  0  RS:  0
  
                                                   00 00   00 00                                      
   75  00000170  00112623    addi x10, x10, xFFF | DL    | A    | M    | R   | EN       RD:  0  RS:  0
  
                                                   00 10   00 00               4                      
   76  00000174  FD9FF0EF      sw x1 , x00C(x2 ) | DL    | A    | R    | -   | E        RD:  0  RS:  0
  
                                                   00 00   00 00                                      
   77  00000148  00000013     jal x1 ,    xFFFEC | DL    | A    | R    | R     -        RD:  0  RS:  1
  
                                                   00 00   00 00                                      
   78  0000014C  00100793    addi x0 , x0 , x000 | DLN   | R    | M    | R   | E        RD:  0  RS:  0
  
                                                   00 00   00 00                                      
   79  00000150  00A7E663    addi x15, x0 , x001 | DL    | AN   | R    | -   | E        RD:  0  RS:  0
  
                                                   00 00   00 00                        Pre: SE       
   80  00000154  00100513    bltu x15, x10, x006 | DL    | A    | RN   | R     -        RD:  0  RS:  0
  
                                                   00 00   00 01  1                             CPr: E
   81  00000158  00000013    addi x10, x0 , x001 | DL    | CPr  | R    | RN  | E        RD:  0  RS:  0
  
                                                   00 00   00 00                                      
   82  0000015C  0040006F    addi x0 , x0 , x000 | DLN   | nop  | -    | R   | EN       RD:  0  RS:  0
  
                                                   00 00   00 00                                      
   83  0000015C  00000013     jal x0 ,    x00002 | DL    | AN   | nop  | -   | E        RD:  0  RS:  1
  
                                                   00 00   00 00                                      
   84  00000160  FF010113    addi x0 , x0 , x000 | DLN   | R    | RN   | nop | -        RD:  0  RS:  0
  
                                                   00 00   00 00                                      
   85  00000164  00812423    addi x2 , x2 , xFF0 | DL    | AN   | R    | RN  | nop      RD:  0  RS:  0
  
                                                   00 00   00 00                                      
   86  00000168  00050413      sw x8 , x008(x2 ) | DL    | A    | RN   | R   | EN       RD:  0  RS:  0
  
                                                   00 00   00 01  1                                   
   87  0000016C  FFF50513    addi x8 , x10, x000 | DL    | A    | R    | RN  | E        RD:  0  RS:  0
  
                                                   00 00   00 00                                      
   88  00000170  00112623    addi x10, x10, xFFF | DL    | A    | M    | R   | EN       RD:  0  RS:  0
  
                                                   00 10   00 00               4                      
   89  00000174  FD9FF0EF      sw x1 , x00C(x2 ) | DL    | A    | R    | -   | E        RD:  0  RS:  0
  
                                                   00 00   00 00                                      
   90  00000148  00000013     jal x1 ,    xFFFEC | DL    | A    | R    | R     -        RD:  0  RS:  1
  
                                                   00 00   00 00                                      
   91  0000014C  00100793    addi x0 , x0 , x000 | DLN   | R    | M    | R   | E        RD:  0  RS:  0
  
                                                   00 00   00 00                                      
   92  00000150  00A7E663    addi x15, x0 , x001 | DL    | AN   | R    | -   | E        RD:  0  RS:  0
  
                                                   00 00   00 00                        Pre: SE       
   93  00000154  00100513    bltu x15, x10, x006 | DL    | A    | RN   | R     -        RD:  0  RS:  0
  
                                                   00 00   00 01  1                             CPr: C
   94  00000158  00008067    addi x10, x0 , x001 | DL    | CPr  | R    | RN  | E        RD:  0  RS:  0
  
                                                   00 00   00 00                                      
   95  0000015C  00000013    jalr x0 , x000(x1 ) | DL    | A    | -    | R   | EN       RD:  0  RS:  1
  
                                                   00 00   00 00                                      
   96  00000174  00000013    addi x0 , x0 , x000 | DLN   | A    | R    | -   | E        RD:  0  RS:  1
  
                                                   00 00   00 00                                      
   97  00000178  00E41613    addi x0 , x0 , x000 | DLN   | AN   | R    | R   | -        RD:  0  RS:  0
  
                                                   00 00   00 00                                      
   98  0000017C  3FFFC7B7    slli x12, x8 , x00E | DL    | AN   | RN   | R   | E        RD:  0  RS:  0
  
                                                   00 00   00 00                                      
   99  00000180  00F67633     lui x15, x3FFFC    | DL    | A    | RN   | RN  | E        RD:  0  RS:  0
  
                                                   00 00   00 00                                      
  100  00000184  01051513     and x12, x12, x15  | DL    | A    | R    | RN  | EN       RD:  0  RS:  0
  
                                                   00 00   01 10  1      2                            
  101  00000188  01055513    slli x10, x10, x010 | DL    | A    | R    | R   | EN       RD:  0  RS:  0
  
                                                   00 00   00 00                                      
  102  0000018C  00161593    srli x10, x10, x010 | DL    | A    | R    | R   | E        RD:  0  RS:  0
  
                                                   00 01   00 01  1        3                          
  103  00000190  00800713    slli x11, x12, x001 | DL    | A    | R    | R   | E        RD:  0  RS:  0
  
                                                   00 00   00 00                                      
  104  00000194  00157793    addi x14, x0 , x008 | DL    | A    | R    | R   | E        RD:  0  RS:  0
  
                                                   00 11   00 00           3   4                      
  105  00000198  00257693    andi x15, x10, x001 | DL    | A    | R    | R   | E        RD:  0  RS:  0
  
                                                   00 10   00 00               4                      
  106  0000019C  FFF70713    andi x13, x10, x002 | DL    | A    | R    | R   | E        RD:  0  RS:  0
  
                                                   00 01   00 00           3                          
  107  000001A0  00255513    addi x14, x14, xFFF | DL    | A    | R    | R   | E        RD:  0  RS:  0
  
                                                   00 00   00 00                                      
  108  000001A4  00078463    srli x10, x10, x002 | DL    | A    | R    | R   | E        RD:  0  RS:  0
  
                                                   00 10   00 00               4        Pre: SE       
  109  000001A8  00060793     beq x15, x0 , x004 | DL    | A    | R    | R   | E        RD:  0  RS:  0
  
                                                   00 00   00 00                                CPr: C
  110  000001AC  00068463    addi x15, x12, x000 | DL    | CPr  | R    | R   | E        RD:  0  RS:  0
  
                                                   00 00   00 00                        Pre: SE       
  111  000001B0  00B787B3     beq x13, x0 , x004 | DL    | A    | -    | R   | E        RD:  0  RS:  0
  
                                                   00 00   00 00                                CPr: E
  112  000001B0  00000013     add x15, x15, x11  | DL    | CPr  | R    | -   | E        RD:  0  RS:  0
  
                                                   00 00   00 10         2                            
  113  000001B4  00F50533    addi x0 , x0 , x000 | DLN   | nop  | -    | R   | -        RD:  0  RS:  0
  
                                                   10 00   00 00               4                      
  114  000001B8  FC071EE3     add x10, x10, x15  | DL    | AN   | nop  | -   | E        RD:  0  RS:  0
  
                                                   00 00   00 00                        Pre: SE       
  115  000001BC  00C12083     bne x14, x0 , xFEE | DL    | A    | RN   | nop | -        RD:  0  RS:  0
  
                                                   00 00   00 00                                CPr: E
  116  00000190  00000013      lw x1 , x00C(x2 ) | DL    | CPr  | R    | RN  | nop      RD:  0  RS:  0
  
                                                   00 00   00 00                                      
  117  00000194  00157793    addi x0 , x0 , x000 | DLN   | nop  | -    | R   | EN       RD:  0  RS:  0
  
                                                   00 10   00 00               4                      
  118  00000198  00257693    andi x15, x10, x001 | DL    | AN   | nop  | -   | E        RD:  0  RS:  0
  
                                                   00 00   00 00                                      
  119  0000019C  FFF70713    andi x13, x10, x002 | DL    | A    | RN   | nop | -        RD:  0  RS:  0
  
                                                   00 00   00 00                                      
  120  000001A0  00255513    addi x14, x14, xFFF | DL    | A    | R    | RN  | nop      RD:  0  RS:  0
  
                                                   00 00   00 00                                      
  121  000001A4  00078463    srli x10, x10, x002 | DL    | A    | R    | R   | EN       RD:  0  RS:  0
  
                                                   00 10   00 00               4        Pre: SE       
  122  000001A8  00060793     beq x15, x0 , x004 | DL    | A    | R    | R   | E        RD:  0  RS:  0
  
                                                   00 00   00 00                                CPr: E
  123  000001A8  00000013    addi x15, x12, x000 | DL    | CPr  | R    | R   | E        RD:  0  RS:  0
  
                                                   00 00   00 00                                      
  124  000001AC  00068463    addi x0 , x0 , x000 | DLN   | nop  | -    | R   | E        RD:  0  RS:  0
  
                                                   00 00   00 00                        Pre: SE       
  125  000001B0  00B787B3     beq x13, x0 , x004 | DL    | AN   | nop  | -   | E        RD:  0  RS:  0
  
                                                   00 00   00 00                                CPr: E
  126  000001B0  00000013     add x15, x15, x11  | DL    | CPr  | RN   | nop | -        RD:  0  RS:  0
  
                                                   00 00   00 00                                      
  127  000001B4  00F50533    addi x0 , x0 , x000 | DLN   | nop  | -    | RN  | nop      RD:  0  RS:  0
  
                                                   00 00   00 00                                      
  128  000001B8  FC071EE3     add x10, x10, x15  | DL    | AN   | nop  | -   | EN       RD:  0  RS:  0
  
                                                   00 00   00 00                        Pre: SE       
  129  000001BC  00C12083     bne x14, x0 , xFEE | DL    | A    | RN   | nop | -        RD:  0  RS:  0
  
                                                   00 00   00 00                                CPr: E
  130  00000190  00000013      lw x1 , x00C(x2 ) | DL    | CPr  | R    | RN  | nop      RD:  0  RS:  0
  
                                                   00 00   00 00                                      
  131  00000194  00157793    addi x0 , x0 , x000 | DLN   | nop  | -    | R   | EN       RD:  0  RS:  0
  
                                                   00 10   00 00               4                      
  132  00000198  00257693    andi x15, x10, x001 | DL    | AN   | nop  | -   | E        RD:  0  RS:  0
  
                                                   00 00   00 00                                      
  133  0000019C  FFF70713    andi x13, x10, x002 | DL    | A    | RN   | nop | -        RD:  0  RS:  0
  
                                                   00 00   00 00                                      
  134  000001A0  00255513    addi x14, x14, xFFF | DL    | A    | R    | RN  | nop      RD:  0  RS:  0
  
                                                   00 00   00 00                                      
  135  000001A4  00078463    srli x10, x10, x002 | DL    | A    | R    | R   | EN       RD:  0  RS:  0
  
                                                   00 10   00 00               4        Pre: SE       
  136  000001A8  00060793     beq x15, x0 , x004 | DL    | A    | R    | R   | E        RD:  0  RS:  0
  
                                                   00 00   00 00                                CPr: E
  137  000001A8  00000013    addi x15, x12, x000 | DL    | CPr  | R    | R   | E        RD:  0  RS:  0
  
                                                   00 00   00 00                                      
  138  000001AC  00068463    addi x0 , x0 , x000 | DLN   | nop  | -    | R   | E        RD:  0  RS:  0
  
                                                   00 00   00 00                        Pre: SE       
  139  000001B0  00B787B3     beq x13, x0 , x004 | DL    | AN   | nop  | -   | E        RD:  0  RS:  0
  
                                                   00 00   00 00                                CPr: E
  140  000001B0  00000013     add x15, x15, x11  | DL    | CPr  | RN   | nop | -        RD:  0  RS:  0
  
                                                   00 00   00 00                                      
  141  000001B4  00F50533    addi x0 , x0 , x000 | DLN   | nop  | -    | RN  | nop      RD:  0  RS:  0
  
                                                   00 00   00 00                                      
  142  000001B8  FC071EE3     add x10, x10, x15  | DL    | AN   | nop  | -   | EN       RD:  0  RS:  0
  
                                                   00 00   00 00                        Pre: SE       
  143  000001BC  00C12083     bne x14, x0 , xFEE | DL    | A    | RN   | nop | -        RD:  0  RS:  0
  
                                                   00 00   00 00                                CPr: E
  144  00000190  00000013      lw x1 , x00C(x2 ) | DL    | CPr  | R    | RN  | nop      RD:  0  RS:  0
  
                                                   00 00   00 00                                      
  145  00000194  00157793    addi x0 , x0 , x000 | DLN   | nop  | -    | R   | EN       RD:  0  RS:  0
  
                                                   00 10   00 00               4                      
  146  00000198  00257693    andi x15, x10, x001 | DL    | AN   | nop  | -   | E        RD:  0  RS:  0
  
                                                   00 00   00 00                                      
  147  0000019C  FFF70713    andi x13, x10, x002 | DL    | A    | RN   | nop | -        RD:  0  RS:  0
  
                                                   00 00   00 00                                      
  148  000001A0  00255513    addi x14, x14, xFFF | DL    | A    | R    | RN  | nop      RD:  0  RS:  0
  
                                                   00 00   00 00                                      
  149  000001A4  00078463    srli x10, x10, x002 | DL    | A    | R    | R   | EN       RD:  0  RS:  0
  
                                                   00 10   00 00               4        Pre: SE       
  150  000001A8  00060793     beq x15, x0 , x004 | DL    | A    | R    | R   | E        RD:  0  RS:  0
  
                                                   00 00   00 00                                CPr: E
  151  000001A8  00000013    addi x15, x12, x000 | DL    | CPr  | R    | R   | E        RD:  0  RS:  0
  
                                                   00 00   00 00                                      
  152  000001AC  00068463    addi x0 , x0 , x000 | DLN   | nop  | -    | R   | E        RD:  0  RS:  0
  
                                                   00 00   00 00                        Pre: SE       
  153  000001B0  00B787B3     beq x13, x0 , x004 | DL    | AN   | nop  | -   | E        RD:  0  RS:  0
  
                                                   00 00   00 00                                CPr: E
  154  000001B0  00000013     add x15, x15, x11  | DL    | CPr  | RN   | nop | -        RD:  0  RS:  0
  
                                                   00 00   00 00                                      
  155  000001B4  00F50533    addi x0 , x0 , x000 | DLN   | nop  | -    | RN  | nop      RD:  0  RS:  0
  
                                                   00 00   00 00                                      
  156  000001B8  FC071EE3     add x10, x10, x15  | DL    | AN   | nop  | -   | EN       RD:  0  RS:  0
  
                                                   00 00   00 00                        Pre: SE       
  157  000001BC  00C12083     bne x14, x0 , xFEE | DL    | A    | RN   | nop | -        RD:  0  RS:  0
  
                                                   00 00   00 00                                CPr: E
  158  00000190  00000013      lw x1 , x00C(x2 ) | DL    | CPr  | R    | RN  | nop      RD:  0  RS:  0
  
                                                   00 00   00 00                                      
  159  00000194  00157793    addi x0 , x0 , x000 | DLN   | nop  | -    | R   | EN       RD:  0  RS:  0
  
                                                   00 10   00 00               4                      
  160  00000198  00257693    andi x15, x10, x001 | DL    | AN   | nop  | -   | E        RD:  0  RS:  0
  
                                                   00 00   00 00                                      
  161  0000019C  FFF70713    andi x13, x10, x002 | DL    | A    | RN   | nop | -        RD:  0  RS:  0
  
                                                   00 00   00 00                                      
  162  000001A0  00255513    addi x14, x14, xFFF | DL    | A    | R    | RN  | nop      RD:  0  RS:  0
  
                                                   00 00   00 00                                      
  163  000001A4  00078463    srli x10, x10, x002 | DL    | A    | R    | R   | EN       RD:  0  RS:  0
  
                                                   00 10   00 00               4        Pre: SE       
  164  000001A8  00060793     beq x15, x0 , x004 | DL    | A    | R    | R   | E        RD:  0  RS:  0
  
                                                   00 00   00 00                                CPr: E
  165  000001A8  00000013    addi x15, x12, x000 | DL    | CPr  | R    | R   | E        RD:  0  RS:  0
  
                                                   00 00   00 00                                      
  166  000001AC  00068463    addi x0 , x0 , x000 | DLN   | nop  | -    | R   | E        RD:  0  RS:  0
  
                                                   00 00   00 00                        Pre: SE       
  167  000001B0  00B787B3     beq x13, x0 , x004 | DL    | AN   | nop  | -   | E        RD:  0  RS:  0
  
                                                   00 00   00 00                                CPr: E
  168  000001B0  00000013     add x15, x15, x11  | DL    | CPr  | RN   | nop | -        RD:  0  RS:  0
  
                                                   00 00   00 00                                      
  169  000001B4  00F50533    addi x0 , x0 , x000 | DLN   | nop  | -    | RN  | nop      RD:  0  RS:  0
  
                                                   00 00   00 00                                      
  170  000001B8  FC071EE3     add x10, x10, x15  | DL    | AN   | nop  | -   | EN       RD:  0  RS:  0
  
                                                   00 00   00 00                        Pre: SE       
  171  000001BC  00C12083     bne x14, x0 , xFEE | DL    | A    | RN   | nop | -        RD:  0  RS:  0
  
                                                   00 00   00 00                                CPr: E
  172  00000190  00000013      lw x1 , x00C(x2 ) | DL    | CPr  | R    | RN  | nop      RD:  0  RS:  0
  
                                                   00 00   00 00                                      
  173  00000194  00157793    addi x0 , x0 , x000 | DLN   | nop  | -    | R   | EN       RD:  0  RS:  0
  
                                                   00 10   00 00               4                      
  174  00000198  00257693    andi x15, x10, x001 | DL    | AN   | nop  | -   | E        RD:  0  RS:  0
  
                                                   00 00   00 00                                      
  175  0000019C  FFF70713    andi x13, x10, x002 | DL    | A    | RN   | nop | -        RD:  0  RS:  0
  
                                                   00 00   00 00                                      
  176  000001A0  00255513    addi x14, x14, xFFF | DL    | A    | R    | RN  | nop      RD:  0  RS:  0
  
                                                   00 00   00 00                                      
  177  000001A4  00078463    srli x10, x10, x002 | DL    | A    | R    | R   | EN       RD:  0  RS:  0
  
                                                   00 10   00 00               4        Pre: SE       
  178  000001A8  00060793     beq x15, x0 , x004 | DL    | A    | R    | R   | E        RD:  0  RS:  0
  
                                                   00 00   00 00                                CPr: E
  179  000001A8  00000013    addi x15, x12, x000 | DL    | CPr  | R    | R   | E        RD:  0  RS:  0
  
                                                   00 00   00 00                                      
  180  000001AC  00068463    addi x0 , x0 , x000 | DLN   | nop  | -    | R   | E        RD:  0  RS:  0
  
                                                   00 00   00 00                        Pre: SE       
  181  000001B0  00B787B3     beq x13, x0 , x004 | DL    | AN   | nop  | -   | E        RD:  0  RS:  0
  
                                                   00 00   00 00                                CPr: E
  182  000001B0  00000013     add x15, x15, x11  | DL    | CPr  | RN   | nop | -        RD:  0  RS:  0
  
                                                   00 00   00 00                                      
  183  000001B4  00F50533    addi x0 , x0 , x000 | DLN   | nop  | -    | RN  | nop      RD:  0  RS:  0
  
                                                   00 00   00 00                                      
  184  000001B8  FC071EE3     add x10, x10, x15  | DL    | AN   | nop  | -   | EN       RD:  0  RS:  0
  
                                                   00 00   00 00                        Pre: SE       
  185  000001BC  00C12083     bne x14, x0 , xFEE | DL    | A    | RN   | nop | -        RD:  0  RS:  0
  
                                                   00 00   00 00                                CPr: E
  186  00000190  00000013      lw x1 , x00C(x2 ) | DL    | CPr  | R    | RN  | nop      RD:  0  RS:  0
  
                                                   00 00   00 00                                      
  187  00000194  00157793    addi x0 , x0 , x000 | DLN   | nop  | -    | R   | EN       RD:  0  RS:  0
  
                                                   00 10   00 00               4                      
  188  00000198  00257693    andi x15, x10, x001 | DL    | AN   | nop  | -   | E        RD:  0  RS:  0
  
                                                   00 00   00 00                                      
  189  0000019C  FFF70713    andi x13, x10, x002 | DL    | A    | RN   | nop | -        RD:  0  RS:  0
  
                                                   00 00   00 00                                      
  190  000001A0  00255513    addi x14, x14, xFFF | DL    | A    | R    | RN  | nop      RD:  0  RS:  0
  
                                                   00 00   00 00                                      
  191  000001A4  00078463    srli x10, x10, x002 | DL    | A    | R    | R   | EN       RD:  0  RS:  0
  
                                                   00 10   00 00               4        Pre: SE       
  192  000001A8  00060793     beq x15, x0 , x004 | DL    | A    | R    | R   | E        RD:  0  RS:  0
  
                                                   00 00   00 00                                CPr: E
  193  000001A8  00000013    addi x15, x12, x000 | DL    | CPr  | R    | R   | E        RD:  0  RS:  0
  
                                                   00 00   00 00                                      
  194  000001AC  00068463    addi x0 , x0 , x000 | DLN   | nop  | -    | R   | E        RD:  0  RS:  0
  
                                                   00 00   00 00                        Pre: SE       
  195  000001B0  00B787B3     beq x13, x0 , x004 | DL    | AN   | nop  | -   | E        RD:  0  RS:  0
  
                                                   00 00   00 00                                CPr: E
  196  000001B0  00000013     add x15, x15, x11  | DL    | CPr  | RN   | nop | -        RD:  0  RS:  0
  
                                                   00 00   00 00                                      
  197  000001B4  00F50533    addi x0 , x0 , x000 | DLN   | nop  | -    | RN  | nop      RD:  0  RS:  0
  
                                                   00 00   00 00                                      
  198  000001B8  FC071EE3     add x10, x10, x15  | DL    | AN   | nop  | -   | EN       RD:  0  RS:  0
  
                                                   00 00   00 00                        Pre: SE       
  199  000001BC  00C12083     bne x14, x0 , xFEE | DL    | A    | RN   | nop | -        RD:  0  RS:  0
  
                                                   00 00   00 00                                CPr: E
  200  00000190  00000013      lw x1 , x00C(x2 ) | DL    | CPr  | R    | RN  | nop      RD:  0  RS:  0
  
                                                   00 00   00 00                                      
  201  00000194  00157793    addi x0 , x0 , x000 | DLN   | nop  | -    | R   | EN       RD:  0  RS:  0
  
                                                   00 10   00 00               4                      
  202  00000198  00257693    andi x15, x10, x001 | DL    | AN   | nop  | -   | E        RD:  0  RS:  0
  
                                                   00 00   00 00                                      
  203  0000019C  FFF70713    andi x13, x10, x002 | DL    | A    | RN   | nop | -        RD:  0  RS:  0
  
                                                   00 00   00 00                                      
  204  000001A0  00255513    addi x14, x14, xFFF | DL    | A    | R    | RN  | nop      RD:  0  RS:  0
  
                                                   00 00   00 00                                      
  205  000001A4  00078463    srli x10, x10, x002 | DL    | A    | R    | R   | EN       RD:  0  RS:  0
  
                                                   00 10   00 00               4        Pre: SE       
  206  000001A8  00060793     beq x15, x0 , x004 | DL    | A    | R    | R   | E        RD:  0  RS:  0
  
                                                   00 00   00 00                                CPr: E
  207  000001A8  00000013    addi x15, x12, x000 | DL    | CPr  | R    | R   | E        RD:  0  RS:  0
  
                                                   00 00   00 00                                      
  208  000001AC  00068463    addi x0 , x0 , x000 | DLN   | nop  | -    | R   | E        RD:  0  RS:  0
  
                                                   00 00   00 00                        Pre: SE       
  209  000001B0  00B787B3     beq x13, x0 , x004 | DL    | AN   | nop  | -   | E        RD:  0  RS:  0
  
                                                   00 00   00 00                                CPr: E
  210  000001B0  00000013     add x15, x15, x11  | DL    | CPr  | RN   | nop | -        RD:  0  RS:  0
  
                                                   00 00   00 00                                      
  211  000001B4  00F50533    addi x0 , x0 , x000 | DLN   | nop  | -    | RN  | nop      RD:  0  RS:  0
  
                                                   00 00   00 00                                      
  212  000001B8  FC071EE3     add x10, x10, x15  | DL    | AN   | nop  | -   | EN       RD:  0  RS:  0
  
                                                   00 00   00 00                        Pre: SE       
  213  000001BC  00C12083     bne x14, x0 , xFEE | DL    | A    | RN   | nop | -        RD:  0  RS:  0
  
                                                   00 00   00 00                                CPr: C
  214  000001B8  00812403      lw x1 , x00C(x2 ) | DL    | CPr  | R    | RN  | nop      RD:  0  RS:  0
  
                                                   00 00   00 00                                      
  215  000001BC  00C12083      lw x8 , x008(x2 ) | DL    | A    | -    | R   | EN       RD:  0  RS:  0
  
                                                   00 00   00 00                                      
  216  000001C0  00812403      lw x1 , x00C(x2 ) | DL    | A    | M    | -   | E        RD:  0  RS:  0
  
                                                   00 00   00 00                                      
  217  000001C4  01010113      lw x8 , x008(x2 ) | DL    | A    | M    | F   | -        RD:  0  RS:  0
  
                                                   00 00   00 00                                      
  218  000001C8  00008067    addi x2 , x2 , x010 | DL    | A    | M    | F   | E        RD:  0  RS:  0
  
                                                   00 01   00 00           3                          
  219  000001CC  00000013    jalr x0 , x000(x1 ) | DL    | A    | M    | F   | E        RD:  0  RS:  1
  
                                                   00 00   00 00                                      
  220  00000174  00000013    addi x0 , x0 , x000 | DLN   | A    | R    | F   | E        RD:  0  RS:  1
  
                                                   00 00   00 00                                      
  221  00000178  00E41613    addi x0 , x0 , x000 | DLN   | AN   | R    | R   | E        RD:  0  RS:  0
  
                                                   00 00   00 00                                      
  222  0000017C  3FFFC7B7    slli x12, x8 , x00E | DL    | AN   | RN   | R   | E        RD:  0  RS:  0
  
                                                   00 00   00 00                                      
  223  00000180  00F67633     lui x15, x3FFFC    | DL    | A    | RN   | RN  | E        RD:  0  RS:  0
  
                                                   00 00   00 00                                      
  224  00000184  01051513     and x12, x12, x15  | DL    | A    | R    | RN  | EN       RD:  0  RS:  0
  
                                                   00 00   01 10  1      2                            
  225  00000188  01055513    slli x10, x10, x010 | DL    | A    | R    | R   | EN       RD:  0  RS:  0
  
                                                   00 00   00 00                                      
  226  0000018C  00161593    srli x10, x10, x010 | DL    | A    | R    | R   | E        RD:  0  RS:  0
  
                                                   00 01   00 01  1        3                          
  227  00000190  00800713    slli x11, x12, x001 | DL    | A    | R    | R   | E        RD:  0  RS:  0
  
                                                   00 00   00 00                                      
  228  00000194  00157793    addi x14, x0 , x008 | DL    | A    | R    | R   | E        RD:  0  RS:  0
  
                                                   00 11   00 00           3   4                      
  229  00000198  00257693    andi x15, x10, x001 | DL    | A    | R    | R   | E        RD:  0  RS:  0
  
                                                   00 10   00 00               4                      
  230  0000019C  FFF70713    andi x13, x10, x002 | DL    | A    | R    | R   | E        RD:  0  RS:  0
  
                                                   00 01   00 00           3                          
  231  000001A0  00255513    addi x14, x14, xFFF | DL    | A    | R    | R   | E        RD:  0  RS:  0
  
                                                   00 00   00 00                                      
  232  000001A4  00078463    srli x10, x10, x002 | DL    | A    | R    | R   | E        RD:  0  RS:  0
  
                                                   00 10   00 00               4        Pre: SE       
  233  000001A8  00060793     beq x15, x0 , x004 | DL    | A    | R    | R   | E        RD:  0  RS:  0
  
                                                   00 00   00 00                                CPr: E
  234  000001A8  00000013    addi x15, x12, x000 | DL    | CPr  | R    | R   | E        RD:  0  RS:  0
  
                                                   00 00   00 00                                      
  235  000001AC  00068463    addi x0 , x0 , x000 | DLN   | nop  | -    | R   | E        RD:  0  RS:  0
  
                                                   00 00   00 00                        Pre: SE       
  236  000001B0  00B787B3     beq x13, x0 , x004 | DL    | AN   | nop  | -   | E        RD:  0  RS:  0
  
                                                   00 00   00 00                                CPr: C
  237  000001B4  00F50533     add x15, x15, x11  | DL    | CPr  | RN   | nop | -        RD:  0  RS:  0
  
                                                   00 00   00 00                                      
  238  000001B8  FC071EE3     add x10, x10, x15  | DL    | A    | -    | RN  | nop      RD:  0  RS:  0
  
                                                   00 00   01 00  1                     Pre: SE       
  239  000001BC  00C12083     bne x14, x0 , xFEE | DL    | A    | R    | -   | EN       RD:  0  RS:  0
  
                                                   00 00   00 00                                CPr: E
  240  00000190  00000013      lw x1 , x00C(x2 ) | DL    | CPr  | R    | R   | -        RD:  0  RS:  0
  
                                                   00 00   00 00                                      
  241  00000194  00157793    addi x0 , x0 , x000 | DLN   | nop  | -    | R   | E        RD:  0  RS:  0
  
                                                   00 10   00 00               4                      
  242  00000198  00257693    andi x15, x10, x001 | DL    | AN   | nop  | -   | E        RD:  0  RS:  0
  
                                                   00 00   00 00                                      
  243  0000019C  FFF70713    andi x13, x10, x002 | DL    | A    | RN   | nop | -        RD:  0  RS:  0
  
                                                   00 00   00 00                                      
  244  000001A0  00255513    addi x14, x14, xFFF | DL    | A    | R    | RN  | nop      RD:  0  RS:  0
  
                                                   00 00   00 00                                      
  245  000001A4  00078463    srli x10, x10, x002 | DL    | A    | R    | R   | EN       RD:  0  RS:  0
  
                                                   00 10   00 00               4        Pre: SE       
  246  000001A8  00060793     beq x15, x0 , x004 | DL    | A    | R    | R   | E        RD:  0  RS:  0
  
                                                   00 00   00 00                                CPr: E
  247  000001A8  00000013    addi x15, x12, x000 | DL    | CPr  | R    | R   | E        RD:  0  RS:  0
  
                                                   00 00   00 00                                      
  248  000001AC  00068463    addi x0 , x0 , x000 | DLN   | nop  | -    | R   | E        RD:  0  RS:  0
  
                                                   00 00   00 00                        Pre: SE       
  249  000001B0  00B787B3     beq x13, x0 , x004 | DL    | AN   | nop  | -   | E        RD:  0  RS:  0
  
                                                   00 00   00 00                                CPr: E
  250  000001B0  00000013     add x15, x15, x11  | DL    | CPr  | RN   | nop | -        RD:  0  RS:  0
  
                                                   00 00   00 00                                      
  251  000001B4  00F50533    addi x0 , x0 , x000 | DLN   | nop  | -    | RN  | nop      RD:  0  RS:  0
  
                                                   00 00   00 00                                      
  252  000001B8  FC071EE3     add x10, x10, x15  | DL    | AN   | nop  | -   | EN       RD:  0  RS:  0
  
                                                   00 00   00 00                        Pre: SE       
  253  000001BC  00C12083     bne x14, x0 , xFEE | DL    | A    | RN   | nop | -        RD:  0  RS:  0
  
                                                   00 00   00 00                                CPr: E
  254  00000190  00000013      lw x1 , x00C(x2 ) | DL    | CPr  | R    | RN  | nop      RD:  0  RS:  0
  
                                                   00 00   00 00                                      
  255  00000194  00157793    addi x0 , x0 , x000 | DLN   | nop  | -    | R   | EN       RD:  0  RS:  0
  
                                                   00 10   00 00               4                      
  256  00000198  00257693    andi x15, x10, x001 | DL    | AN   | nop  | -   | E        RD:  0  RS:  0
  
                                                   00 00   00 00                                      
  257  0000019C  FFF70713    andi x13, x10, x002 | DL    | A    | RN   | nop | -        RD:  0  RS:  0
  
                                                   00 00   00 00                                      
  258  000001A0  00255513    addi x14, x14, xFFF | DL    | A    | R    | RN  | nop      RD:  0  RS:  0
  
                                                   00 00   00 00                                      
  259  000001A4  00078463    srli x10, x10, x002 | DL    | A    | R    | R   | EN       RD:  0  RS:  0
  
                                                   00 10   00 00               4        Pre: SE       
  260  000001A8  00060793     beq x15, x0 , x004 | DL    | A    | R    | R   | E        RD:  0  RS:  0
  
                                                   00 00   00 00                                CPr: E
  261  000001A8  00000013    addi x15, x12, x000 | DL    | CPr  | R    | R   | E        RD:  0  RS:  0
  
                                                   00 00   00 00                                      
  262  000001AC  00068463    addi x0 , x0 , x000 | DLN   | nop  | -    | R   | E        RD:  0  RS:  0
  
                                                   00 00   00 00                        Pre: SE       
  263  000001B0  00B787B3     beq x13, x0 , x004 | DL    | AN   | nop  | -   | E        RD:  0  RS:  0
  
                                                   00 00   00 00                                CPr: E
  264  000001B0  00000013     add x15, x15, x11  | DL    | CPr  | RN   | nop | -        RD:  0  RS:  0
  
                                                   00 00   00 00                                      
  265  000001B4  00F50533    addi x0 , x0 , x000 | DLN   | nop  | -    | RN  | nop      RD:  0  RS:  0
  
                                                   00 00   00 00                                      
  266  000001B8  FC071EE3     add x10, x10, x15  | DL    | AN   | nop  | -   | EN       RD:  0  RS:  0
  
                                                   00 00   00 00                        Pre: SE       
  267  000001BC  00C12083     bne x14, x0 , xFEE | DL    | A    | RN   | nop | -        RD:  0  RS:  0
  
                                                   00 00   00 00                                CPr: E
  268  00000190  00000013      lw x1 , x00C(x2 ) | DL    | CPr  | R    | RN  | nop      RD:  0  RS:  0
  
                                                   00 00   00 00                                      
  269  00000194  00157793    addi x0 , x0 , x000 | DLN   | nop  | -    | R   | EN       RD:  0  RS:  0
  
                                                   00 10   00 00               4                      
  270  00000198  00257693    andi x15, x10, x001 | DL    | AN   | nop  | -   | E        RD:  0  RS:  0
  
                                                   00 00   00 00                                      
  271  0000019C  FFF70713    andi x13, x10, x002 | DL    | A    | RN   | nop | -        RD:  0  RS:  0
  
                                                   00 00   00 00                                      
  272  000001A0  00255513    addi x14, x14, xFFF | DL    | A    | R    | RN  | nop      RD:  0  RS:  0
  
                                                   00 00   00 00                                      
  273  000001A4  00078463    srli x10, x10, x002 | DL    | A    | R    | R   | EN       RD:  0  RS:  0
  
                                                   00 10   00 00               4        Pre: SE       
  274  000001A8  00060793     beq x15, x0 , x004 | DL    | A    | R    | R   | E        RD:  0  RS:  0
  
                                                   00 00   00 00                                CPr: E
  275  000001A8  00000013    addi x15, x12, x000 | DL    | CPr  | R    | R   | E        RD:  0  RS:  0
  
                                                   00 00   00 00                                      
  276  000001AC  00068463    addi x0 , x0 , x000 | DLN   | nop  | -    | R   | E        RD:  0  RS:  0
  
                                                   00 00   00 00                        Pre: SE       
  277  000001B0  00B787B3     beq x13, x0 , x004 | DL    | AN   | nop  | -   | E        RD:  0  RS:  0
  
                                                   00 00   00 00                                CPr: E
  278  000001B0  00000013     add x15, x15, x11  | DL    | CPr  | RN   | nop | -        RD:  0  RS:  0
  
                                                   00 00   00 00                                      
  279  000001B4  00F50533    addi x0 , x0 , x000 | DLN   | nop  | -    | RN  | nop      RD:  0  RS:  0
  
                                                   00 00   00 00                                      
  280  000001B8  FC071EE3     add x10, x10, x15  | DL    | AN   | nop  | -   | EN       RD:  0  RS:  0
  
                                                   00 00   00 00                        Pre: SE       
  281  000001BC  00C12083     bne x14, x0 , xFEE | DL    | A    | RN   | nop | -        RD:  0  RS:  0
  
                                                   00 00   00 00                                CPr: E
  282  00000190  00000013      lw x1 , x00C(x2 ) | DL    | CPr  | R    | RN  | nop      RD:  0  RS:  0
  
                                                   00 00   00 00                                      
  283  00000194  00157793    addi x0 , x0 , x000 | DLN   | nop  | -    | R   | EN       RD:  0  RS:  0
  
                                                   00 10   00 00               4                      
  284  00000198  00257693    andi x15, x10, x001 | DL    | AN   | nop  | -   | E        RD:  0  RS:  0
  
                                                   00 00   00 00                                      
  285  0000019C  FFF70713    andi x13, x10, x002 | DL    | A    | RN   | nop | -        RD:  0  RS:  0
  
                                                   00 00   00 00                                      
  286  000001A0  00255513    addi x14, x14, xFFF | DL    | A    | R    | RN  | nop      RD:  0  RS:  0
  
                                                   00 00   00 00                                      
  287  000001A4  00078463    srli x10, x10, x002 | DL    | A    | R    | R   | EN       RD:  0  RS:  0
  
                                                   00 10   00 00               4        Pre: SE       
  288  000001A8  00060793     beq x15, x0 , x004 | DL    | A    | R    | R   | E        RD:  0  RS:  0
  
                                                   00 00   00 00                                CPr: E
  289  000001A8  00000013    addi x15, x12, x000 | DL    | CPr  | R    | R   | E        RD:  0  RS:  0
  
                                                   00 00   00 00                                      
  290  000001AC  00068463    addi x0 , x0 , x000 | DLN   | nop  | -    | R   | E        RD:  0  RS:  0
  
                                                   00 00   00 00                        Pre: SE       
  291  000001B0  00B787B3     beq x13, x0 , x004 | DL    | AN   | nop  | -   | E        RD:  0  RS:  0
  
                                                   00 00   00 00                                CPr: E
  292  000001B0  00000013     add x15, x15, x11  | DL    | CPr  | RN   | nop | -        RD:  0  RS:  0
  
                                                   00 00   00 00                                      
  293  000001B4  00F50533    addi x0 , x0 , x000 | DLN   | nop  | -    | RN  | nop      RD:  0  RS:  0
  
                                                   00 00   00 00                                      
  294  000001B8  FC071EE3     add x10, x10, x15  | DL    | AN   | nop  | -   | EN       RD:  0  RS:  0
  
                                                   00 00   00 00                        Pre: SE       
  295  000001BC  00C12083     bne x14, x0 , xFEE | DL    | A    | RN   | nop | -        RD:  0  RS:  0
  
                                                   00 00   00 00                                CPr: E
  296  00000190  00000013      lw x1 , x00C(x2 ) | DL    | CPr  | R    | RN  | nop      RD:  0  RS:  0
  
                                                   00 00   00 00                                      
  297  00000194  00157793    addi x0 , x0 , x000 | DLN   | nop  | -    | R   | EN       RD:  0  RS:  0
  
                                                   00 10   00 00               4                      
  298  00000198  00257693    andi x15, x10, x001 | DL    | AN   | nop  | -   | E        RD:  0  RS:  0
  
                                                   00 00   00 00                                      
  299  0000019C  FFF70713    andi x13, x10, x002 | DL    | A    | RN   | nop | -        RD:  0  RS:  0
  
                                                   00 00   00 00                                      
  300  000001A0  00255513    addi x14, x14, xFFF | DL    | A    | R    | RN  | nop      RD:  0  RS:  0
  
                                                   00 00   00 00                                      
  301  000001A4  00078463    srli x10, x10, x002 | DL    | A    | R    | R   | EN       RD:  0  RS:  0
  
                                                   00 10   00 00               4        Pre: SE       
  302  000001A8  00060793     beq x15, x0 , x004 | DL    | A    | R    | R   | E        RD:  0  RS:  0
  
                                                   00 00   00 00                                CPr: E
  303  000001A8  00000013    addi x15, x12, x000 | DL    | CPr  | R    | R   | E        RD:  0  RS:  0
  
                                                   00 00   00 00                                      
  304  000001AC  00068463    addi x0 , x0 , x000 | DLN   | nop  | -    | R   | E        RD:  0  RS:  0
  
                                                   00 00   00 00                        Pre: SE       
  305  000001B0  00B787B3     beq x13, x0 , x004 | DL    | AN   | nop  | -   | E        RD:  0  RS:  0
  
                                                   00 00   00 00                                CPr: E
  306  000001B0  00000013     add x15, x15, x11  | DL    | CPr  | RN   | nop | -        RD:  0  RS:  0
  
                                                   00 00   00 00                                      
  307  000001B4  00F50533    addi x0 , x0 , x000 | DLN   | nop  | -    | RN  | nop      RD:  0  RS:  0
  
                                                   00 00   00 00                                      
  308  000001B8  FC071EE3     add x10, x10, x15  | DL    | AN   | nop  | -   | EN       RD:  0  RS:  0
  
                                                   00 00   00 00                        Pre: SE       
  309  000001BC  00C12083     bne x14, x0 , xFEE | DL    | A    | RN   | nop | -        RD:  0  RS:  0
  
                                                   00 00   00 00                                CPr: E
  310  00000190  00000013      lw x1 , x00C(x2 ) | DL    | CPr  | R    | RN  | nop      RD:  0  RS:  0
  
                                                   00 00   00 00                                      
  311  00000194  00157793    addi x0 , x0 , x000 | DLN   | nop  | -    | R   | EN       RD:  0  RS:  0
  
                                                   00 10   00 00               4                      
  312  00000198  00257693    andi x15, x10, x001 | DL    | AN   | nop  | -   | E        RD:  0  RS:  0
  
                                                   00 00   00 00                                      
  313  0000019C  FFF70713    andi x13, x10, x002 | DL    | A    | RN   | nop | -        RD:  0  RS:  0
  
                                                   00 00   00 00                                      
  314  000001A0  00255513    addi x14, x14, xFFF | DL    | A    | R    | RN  | nop      RD:  0  RS:  0
  
                                                   00 00   00 00                                      
  315  000001A4  00078463    srli x10, x10, x002 | DL    | A    | R    | R   | EN       RD:  0  RS:  0
  
                                                   00 10   00 00               4        Pre: SE       
  316  000001A8  00060793     beq x15, x0 , x004 | DL    | A    | R    | R   | E        RD:  0  RS:  0
  
                                                   00 00   00 00                                CPr: E
  317  000001A8  00000013    addi x15, x12, x000 | DL    | CPr  | R    | R   | E        RD:  0  RS:  0
  
                                                   00 00   00 00                                      
  318  000001AC  00068463    addi x0 , x0 , x000 | DLN   | nop  | -    | R   | E        RD:  0  RS:  0
  
                                                   00 00   00 00                        Pre: SE       
  319  000001B0  00B787B3     beq x13, x0 , x004 | DL    | AN   | nop  | -   | E        RD:  0  RS:  0
  
                                                   00 00   00 00                                CPr: E
  320  000001B0  00000013     add x15, x15, x11  | DL    | CPr  | RN   | nop | -        RD:  0  RS:  0
  
                                                   00 00   00 00                                      
  321  000001B4  00F50533    addi x0 , x0 , x000 | DLN   | nop  | -    | RN  | nop      RD:  0  RS:  0
  
                                                   00 00   00 00                                      
  322  000001B8  FC071EE3     add x10, x10, x15  | DL    | AN   | nop  | -   | EN       RD:  0  RS:  0
  
                                                   00 00   00 00                        Pre: SE       
  323  000001BC  00C12083     bne x14, x0 , xFEE | DL    | A    | RN   | nop | -        RD:  0  RS:  0
  
                                                   00 00   00 00                                CPr: E
  324  00000190  00000013      lw x1 , x00C(x2 ) | DL    | CPr  | R    | RN  | nop      RD:  0  RS:  0
  
                                                   00 00   00 00                                      
  325  00000194  00157793    addi x0 , x0 , x000 | DLN   | nop  | -    | R   | EN       RD:  0  RS:  0
  
                                                   00 10   00 00               4                      
  326  00000198  00257693    andi x15, x10, x001 | DL    | AN   | nop  | -   | E        RD:  0  RS:  0
  
                                                   00 00   00 00                                      
  327  0000019C  FFF70713    andi x13, x10, x002 | DL    | A    | RN   | nop | -        RD:  0  RS:  0
  
                                                   00 00   00 00                                      
  328  000001A0  00255513    addi x14, x14, xFFF | DL    | A    | R    | RN  | nop      RD:  0  RS:  0
  
                                                   00 00   00 00                                      
  329  000001A4  00078463    srli x10, x10, x002 | DL    | A    | R    | R   | EN       RD:  0  RS:  0
  
                                                   00 10   00 00               4        Pre: SE       
  330  000001A8  00060793     beq x15, x0 , x004 | DL    | A    | R    | R   | E        RD:  0  RS:  0
  
                                                   00 00   00 00                                CPr: E
  331  000001A8  00000013    addi x15, x12, x000 | DL    | CPr  | R    | R   | E        RD:  0  RS:  0
  
                                                   00 00   00 00                                      
  332  000001AC  00068463    addi x0 , x0 , x000 | DLN   | nop  | -    | R   | E        RD:  0  RS:  0
  
                                                   00 00   00 00                        Pre: SE       
  333  000001B0  00B787B3     beq x13, x0 , x004 | DL    | AN   | nop  | -   | E        RD:  0  RS:  0
  
                                                   00 00   00 00                                CPr: E
  334  000001B0  00000013     add x15, x15, x11  | DL    | CPr  | RN   | nop | -        RD:  0  RS:  0
  
                                                   00 00   00 00                                      
  335  000001B4  00F50533    addi x0 , x0 , x000 | DLN   | nop  | -    | RN  | nop      RD:  0  RS:  0
  
                                                   00 00   00 00                                      
  336  000001B8  FC071EE3     add x10, x10, x15  | DL    | AN   | nop  | -   | EN       RD:  0  RS:  0
  
                                                   00 00   00 00                        Pre: SE       
  337  000001BC  00C12083     bne x14, x0 , xFEE | DL    | A    | RN   | nop | -        RD:  0  RS:  0
  
                                                   00 00   00 00                                CPr: C
  338  000001B8  00812403      lw x1 , x00C(x2 ) | DL    | CPr  | R    | RN  | nop      RD:  0  RS:  0
  
                                                   00 00   00 00                                      
  339  000001BC  00C12083      lw x8 , x008(x2 ) | DL    | A    | -    | R   | EN       RD:  0  RS:  0
  
                                                   00 00   00 00                                      
  340  000001C0  00812403      lw x1 , x00C(x2 ) | DL    | A    | M    | -   | E        RD:  0  RS:  0
  
                                                   00 00   00 00                                      
  341  000001C4  01010113      lw x8 , x008(x2 ) | DL    | A    | M    | F   | -        RD:  0  RS:  0
  
                                                   00 00   00 00                                      
  342  000001C8  00008067    addi x2 , x2 , x010 | DL    | A    | M    | F   | E        RD:  0  RS:  0
  
                                                   00 01   00 00           3                          
  343  000001CC  00000013    jalr x0 , x000(x1 ) | DL    | A    | M    | F   | E        RD:  0  RS:  1
  
                                                   00 00   00 00                                      
  344  00000174  00000013    addi x0 , x0 , x000 | DLN   | A    | R    | F   | E        RD:  0  RS:  1
  
                                                   00 00   00 00                                      
  345  00000178  00E41613    addi x0 , x0 , x000 | DLN   | AN   | R    | R   | E        RD:  0  RS:  0
  
                                                   00 00   00 00                                      
  346  0000017C  3FFFC7B7    slli x12, x8 , x00E | DL    | AN   | RN   | R   | E        RD:  0  RS:  0
  
                                                   00 00   00 00                                      
  347  00000180  00F67633     lui x15, x3FFFC    | DL    | A    | RN   | RN  | E        RD:  0  RS:  0
  
                                                   00 00   00 00                                      
  348  00000184  01051513     and x12, x12, x15  | DL    | A    | R    | RN  | EN       RD:  0  RS:  0
  
                                                   00 00   01 10  1      2                            
  349  00000188  01055513    slli x10, x10, x010 | DL    | A    | R    | R   | EN       RD:  0  RS:  0
  
                                                   00 00   00 00                                      
  350  0000018C  00161593    srli x10, x10, x010 | DL    | A    | R    | R   | E        RD:  0  RS:  0
  
                                                   00 01   00 01  1        3                          
  351  00000190  00800713    slli x11, x12, x001 | DL    | A    | R    | R   | E        RD:  0  RS:  0
  
                                                   00 00   00 00                                      
  352  00000194  00157793    addi x14, x0 , x008 | DL    | A    | R    | R   | E        RD:  0  RS:  0
  
                                                   00 11   00 00           3   4                      
  353  00000198  00257693    andi x15, x10, x001 | DL    | A    | R    | R   | E        RD:  0  RS:  0
  
                                                   00 10   00 00               4                      
  354  0000019C  FFF70713    andi x13, x10, x002 | DL    | A    | R    | R   | E        RD:  0  RS:  0
  
                                                   00 01   00 00           3                          
  355  000001A0  00255513    addi x14, x14, xFFF | DL    | A    | R    | R   | E        RD:  0  RS:  0
  
                                                   00 00   00 00                                      
  356  000001A4  00078463    srli x10, x10, x002 | DL    | A    | R    | R   | E        RD:  0  RS:  0
  
                                                   00 10   00 00               4        Pre: SE       
  357  000001A8  00060793     beq x15, x0 , x004 | DL    | A    | R    | R   | E        RD:  0  RS:  0
  
                                                   00 00   00 00                                CPr: E
  358  000001A8  00000013    addi x15, x12, x000 | DL    | CPr  | R    | R   | E        RD:  0  RS:  0
  
                                                   00 00   00 00                                      
  359  000001AC  00068463    addi x0 , x0 , x000 | DLN   | nop  | -    | R   | E        RD:  0  RS:  0
  
                                                   00 00   00 00                        Pre: SE       
  360  000001B0  00B787B3     beq x13, x0 , x004 | DL    | AN   | nop  | -   | E        RD:  0  RS:  0
  
                                                   00 00   00 00                                CPr: C
  361  000001B4  00F50533     add x15, x15, x11  | DL    | CPr  | RN   | nop | -        RD:  0  RS:  0
  
                                                   00 00   00 00                                      
  362  000001B8  FC071EE3     add x10, x10, x15  | DL    | A    | -    | RN  | nop      RD:  0  RS:  0
  
                                                   00 00   01 00  1                     Pre: SE       
  363  000001BC  00C12083     bne x14, x0 , xFEE | DL    | A    | R    | -   | EN       RD:  0  RS:  0
  
                                                   00 00   00 00                                CPr: E
  364  00000190  00000013      lw x1 , x00C(x2 ) | DL    | CPr  | R    | R   | -        RD:  0  RS:  0
  
                                                   00 00   00 00                                      
  365  00000194  00157793    addi x0 , x0 , x000 | DLN   | nop  | -    | R   | E        RD:  0  RS:  0
  
                                                   00 10   00 00               4                      
  366  00000198  00257693    andi x15, x10, x001 | DL    | AN   | nop  | -   | E        RD:  0  RS:  0
  
                                                   00 00   00 00                                      
  367  0000019C  FFF70713    andi x13, x10, x002 | DL    | A    | RN   | nop | -        RD:  0  RS:  0
  
                                                   00 00   00 00                                      
  368  000001A0  00255513    addi x14, x14, xFFF | DL    | A    | R    | RN  | nop      RD:  0  RS:  0
  
                                                   00 00   00 00                                      
  369  000001A4  00078463    srli x10, x10, x002 | DL    | A    | R    | R   | EN       RD:  0  RS:  0
  
                                                   00 10   00 00               4        Pre: SE       
  370  000001A8  00060793     beq x15, x0 , x004 | DL    | A    | R    | R   | E        RD:  0  RS:  0
  
                                                   00 00   00 00                                CPr: C
  371  000001AC  00068463    addi x15, x12, x000 | DL    | CPr  | R    | R   | E        RD:  0  RS:  0
  
                                                   00 00   00 00                        Pre: SE       
  372  000001B0  00B787B3     beq x13, x0 , x004 | DL    | A    | -    | R   | E        RD:  0  RS:  0
  
                                                   00 00   00 00                                CPr: E
  373  000001B0  00000013     add x15, x15, x11  | DL    | CPr  | R    | -   | E        RD:  0  RS:  0
  
                                                   00 00   00 10         2                            
  374  000001B4  00F50533    addi x0 , x0 , x000 | DLN   | nop  | -    | R   | -        RD:  0  RS:  0
  
                                                   10 00   00 00               4                      
  375  000001B8  FC071EE3     add x10, x10, x15  | DL    | AN   | nop  | -   | E        RD:  0  RS:  0
  
                                                   00 00   00 00                        Pre: SE       
  376  000001BC  00C12083     bne x14, x0 , xFEE | DL    | A    | RN   | nop | -        RD:  0  RS:  0
  
                                                   00 00   00 00                                CPr: E
  377  00000190  00000013      lw x1 , x00C(x2 ) | DL    | CPr  | R    | RN  | nop      RD:  0  RS:  0
  
                                                   00 00   00 00                                      
  378  00000194  00157793    addi x0 , x0 , x000 | DLN   | nop  | -    | R   | EN       RD:  0  RS:  0
  
                                                   00 10   00 00               4                      
  379  00000198  00257693    andi x15, x10, x001 | DL    | AN   | nop  | -   | E        RD:  0  RS:  0
  
                                                   00 00   00 00                                      
  380  0000019C  FFF70713    andi x13, x10, x002 | DL    | A    | RN   | nop | -        RD:  0  RS:  0
  
                                                   00 00   00 00                                      
  381  000001A0  00255513    addi x14, x14, xFFF | DL    | A    | R    | RN  | nop      RD:  0  RS:  0
  
                                                   00 00   00 00                                      
  382  000001A4  00078463    srli x10, x10, x002 | DL    | A    | R    | R   | EN       RD:  0  RS:  0
  
                                                   00 10   00 00               4        Pre: SE       
  383  000001A8  00060793     beq x15, x0 , x004 | DL    | A    | R    | R   | E        RD:  0  RS:  0
  
                                                   00 00   00 00                                CPr: E
  384  000001A8  00000013    addi x15, x12, x000 | DL    | CPr  | R    | R   | E        RD:  0  RS:  0
  
                                                   00 00   00 00                                      
  385  000001AC  00068463    addi x0 , x0 , x000 | DLN   | nop  | -    | R   | E        RD:  0  RS:  0
  
                                                   00 00   00 00                        Pre: SE       
  386  000001B0  00B787B3     beq x13, x0 , x004 | DL    | AN   | nop  | -   | E        RD:  0  RS:  0
  
                                                   00 00   00 00                                CPr: E
  387  000001B0  00000013     add x15, x15, x11  | DL    | CPr  | RN   | nop | -        RD:  0  RS:  0
  
                                                   00 00   00 00                                      
  388  000001B4  00F50533    addi x0 , x0 , x000 | DLN   | nop  | -    | RN  | nop      RD:  0  RS:  0
  
                                                   00 00   00 00                                      
  389  000001B8  FC071EE3     add x10, x10, x15  | DL    | AN   | nop  | -   | EN       RD:  0  RS:  0
  
                                                   00 00   00 00                        Pre: SE       
  390  000001BC  00C12083     bne x14, x0 , xFEE | DL    | A    | RN   | nop | -        RD:  0  RS:  0
  
                                                   00 00   00 00                                CPr: E
  391  00000190  00000013      lw x1 , x00C(x2 ) | DL    | CPr  | R    | RN  | nop      RD:  0  RS:  0
  
                                                   00 00   00 00                                      
  392  00000194  00157793    addi x0 , x0 , x000 | DLN   | nop  | -    | R   | EN       RD:  0  RS:  0
  
                                                   00 10   00 00               4                      
  393  00000198  00257693    andi x15, x10, x001 | DL    | AN   | nop  | -   | E        RD:  0  RS:  0
  
                                                   00 00   00 00                                      
  394  0000019C  FFF70713    andi x13, x10, x002 | DL    | A    | RN   | nop | -        RD:  0  RS:  0
  
                                                   00 00   00 00                                      
  395  000001A0  00255513    addi x14, x14, xFFF | DL    | A    | R    | RN  | nop      RD:  0  RS:  0
  
                                                   00 00   00 00                                      
  396  000001A4  00078463    srli x10, x10, x002 | DL    | A    | R    | R   | EN       RD:  0  RS:  0
  
                                                   00 10   00 00               4        Pre: SE       
  397  000001A8  00060793     beq x15, x0 , x004 | DL    | A    | R    | R   | E        RD:  0  RS:  0
  
                                                   00 00   00 00                                CPr: E
  398  000001A8  00000013    addi x15, x12, x000 | DL    | CPr  | R    | R   | E        RD:  0  RS:  0
  
                                                   00 00   00 00                                      
  399  000001AC  00068463    addi x0 , x0 , x000 | DLN   | nop  | -    | R   | E        RD:  0  RS:  0
  
                                                   00 00   00 00                        Pre: SE       
  400  000001B0  00B787B3     beq x13, x0 , x004 | DL    | AN   | nop  | -   | E        RD:  0  RS:  0
  
                                                   00 00   00 00                                CPr: E
  401  000001B0  00000013     add x15, x15, x11  | DL    | CPr  | RN   | nop | -        RD:  0  RS:  0
  
                                                   00 00   00 00                                      
  402  000001B4  00F50533    addi x0 , x0 , x000 | DLN   | nop  | -    | RN  | nop      RD:  0  RS:  0
  
                                                   00 00   00 00                                      
  403  000001B8  FC071EE3     add x10, x10, x15  | DL    | AN   | nop  | -   | EN       RD:  0  RS:  0
  
                                                   00 00   00 00                        Pre: SE       
  404  000001BC  00C12083     bne x14, x0 , xFEE | DL    | A    | RN   | nop | -        RD:  0  RS:  0
  
                                                   00 00   00 00                                CPr: E
  405  00000190  00000013      lw x1 , x00C(x2 ) | DL    | CPr  | R    | RN  | nop      RD:  0  RS:  0
  
                                                   00 00   00 00                                      
  406  00000194  00157793    addi x0 , x0 , x000 | DLN   | nop  | -    | R   | EN       RD:  0  RS:  0
  
                                                   00 10   00 00               4                      
  407  00000198  00257693    andi x15, x10, x001 | DL    | AN   | nop  | -   | E        RD:  0  RS:  0
  
                                                   00 00   00 00                                      
  408  0000019C  FFF70713    andi x13, x10, x002 | DL    | A    | RN   | nop | -        RD:  0  RS:  0
  
                                                   00 00   00 00                                      
  409  000001A0  00255513    addi x14, x14, xFFF | DL    | A    | R    | RN  | nop      RD:  0  RS:  0
  
                                                   00 00   00 00                                      
  410  000001A4  00078463    srli x10, x10, x002 | DL    | A    | R    | R   | EN       RD:  0  RS:  0
  
                                                   00 10   00 00               4        Pre: SE       
  411  000001A8  00060793     beq x15, x0 , x004 | DL    | A    | R    | R   | E        RD:  0  RS:  0
  
                                                   00 00   00 00                                CPr: E
  412  000001A8  00000013    addi x15, x12, x000 | DL    | CPr  | R    | R   | E        RD:  0  RS:  0
  
                                                   00 00   00 00                                      
  413  000001AC  00068463    addi x0 , x0 , x000 | DLN   | nop  | -    | R   | E        RD:  0  RS:  0
  
                                                   00 00   00 00                        Pre: SE       
  414  000001B0  00B787B3     beq x13, x0 , x004 | DL    | AN   | nop  | -   | E        RD:  0  RS:  0
  
                                                   00 00   00 00                                CPr: E
  415  000001B0  00000013     add x15, x15, x11  | DL    | CPr  | RN   | nop | -        RD:  0  RS:  0
  
                                                   00 00   00 00                                      
  416  000001B4  00F50533    addi x0 , x0 , x000 | DLN   | nop  | -    | RN  | nop      RD:  0  RS:  0
  
                                                   00 00   00 00                                      
  417  000001B8  FC071EE3     add x10, x10, x15  | DL    | AN   | nop  | -   | EN       RD:  0  RS:  0
  
                                                   00 00   00 00                        Pre: SE       
  418  000001BC  00C12083     bne x14, x0 , xFEE | DL    | A    | RN   | nop | -        RD:  0  RS:  0
  
                                                   00 00   00 00                                CPr: E
  419  00000190  00000013      lw x1 , x00C(x2 ) | DL    | CPr  | R    | RN  | nop      RD:  0  RS:  0
  
                                                   00 00   00 00                                      
  420  00000194  00157793    addi x0 , x0 , x000 | DLN   | nop  | -    | R   | EN       RD:  0  RS:  0
  
                                                   00 10   00 00               4                      
  421  00000198  00257693    andi x15, x10, x001 | DL    | AN   | nop  | -   | E        RD:  0  RS:  0
  
                                                   00 00   00 00                                      
  422  0000019C  FFF70713    andi x13, x10, x002 | DL    | A    | RN   | nop | -        RD:  0  RS:  0
  
                                                   00 00   00 00                                      
  423  000001A0  00255513    addi x14, x14, xFFF | DL    | A    | R    | RN  | nop      RD:  0  RS:  0
  
                                                   00 00   00 00                                      
  424  000001A4  00078463    srli x10, x10, x002 | DL    | A    | R    | R   | EN       RD:  0  RS:  0
  
                                                   00 10   00 00               4        Pre: SE       
  425  000001A8  00060793     beq x15, x0 , x004 | DL    | A    | R    | R   | E        RD:  0  RS:  0
  
                                                   00 00   00 00                                CPr: E
  426  000001A8  00000013    addi x15, x12, x000 | DL    | CPr  | R    | R   | E        RD:  0  RS:  0
  
                                                   00 00   00 00                                      
  427  000001AC  00068463    addi x0 , x0 , x000 | DLN   | nop  | -    | R   | E        RD:  0  RS:  0
  
                                                   00 00   00 00                        Pre: SE       
  428  000001B0  00B787B3     beq x13, x0 , x004 | DL    | AN   | nop  | -   | E        RD:  0  RS:  0
  
                                                   00 00   00 00                                CPr: E
  429  000001B0  00000013     add x15, x15, x11  | DL    | CPr  | RN   | nop | -        RD:  0  RS:  0
  
                                                   00 00   00 00                                      
  430  000001B4  00F50533    addi x0 , x0 , x000 | DLN   | nop  | -    | RN  | nop      RD:  0  RS:  0
  
                                                   00 00   00 00                                      
  431  000001B8  FC071EE3     add x10, x10, x15  | DL    | AN   | nop  | -   | EN       RD:  0  RS:  0
  
                                                   00 00   00 00                        Pre: SE       
  432  000001BC  00C12083     bne x14, x0 , xFEE | DL    | A    | RN   | nop | -        RD:  0  RS:  0
  
                                                   00 00   00 00                                CPr: E
  433  00000190  00000013      lw x1 , x00C(x2 ) | DL    | CPr  | R    | RN  | nop      RD:  0  RS:  0
  
                                                   00 00   00 00                                      
  434  00000194  00157793    addi x0 , x0 , x000 | DLN   | nop  | -    | R   | EN       RD:  0  RS:  0
  
                                                   00 10   00 00               4                      
  435  00000198  00257693    andi x15, x10, x001 | DL    | AN   | nop  | -   | E        RD:  0  RS:  0
  
                                                   00 00   00 00                                      
  436  0000019C  FFF70713    andi x13, x10, x002 | DL    | A    | RN   | nop | -        RD:  0  RS:  0
  
                                                   00 00   00 00                                      
  437  000001A0  00255513    addi x14, x14, xFFF | DL    | A    | R    | RN  | nop      RD:  0  RS:  0
  
                                                   00 00   00 00                                      
  438  000001A4  00078463    srli x10, x10, x002 | DL    | A    | R    | R   | EN       RD:  0  RS:  0
  
                                                   00 10   00 00               4        Pre: SE       
  439  000001A8  00060793     beq x15, x0 , x004 | DL    | A    | R    | R   | E        RD:  0  RS:  0
  
                                                   00 00   00 00                                CPr: E
  440  000001A8  00000013    addi x15, x12, x000 | DL    | CPr  | R    | R   | E        RD:  0  RS:  0
  
                                                   00 00   00 00                                      
  441  000001AC  00068463    addi x0 , x0 , x000 | DLN   | nop  | -    | R   | E        RD:  0  RS:  0
  
                                                   00 00   00 00                        Pre: SE       
  442  000001B0  00B787B3     beq x13, x0 , x004 | DL    | AN   | nop  | -   | E        RD:  0  RS:  0
  
                                                   00 00   00 00                                CPr: E
  443  000001B0  00000013     add x15, x15, x11  | DL    | CPr  | RN   | nop | -        RD:  0  RS:  0
  
                                                   00 00   00 00                                      
  444  000001B4  00F50533    addi x0 , x0 , x000 | DLN   | nop  | -    | RN  | nop      RD:  0  RS:  0
  
                                                   00 00   00 00                                      
  445  000001B8  FC071EE3     add x10, x10, x15  | DL    | AN   | nop  | -   | EN       RD:  0  RS:  0
  
                                                   00 00   00 00                        Pre: SE       
  446  000001BC  00C12083     bne x14, x0 , xFEE | DL    | A    | RN   | nop | -        RD:  0  RS:  0
  
                                                   00 00   00 00                                CPr: E
  447  00000190  00000013      lw x1 , x00C(x2 ) | DL    | CPr  | R    | RN  | nop      RD:  0  RS:  0
  
                                                   00 00   00 00                                      
  448  00000194  00157793    addi x0 , x0 , x000 | DLN   | nop  | -    | R   | EN       RD:  0  RS:  0
  
                                                   00 10   00 00               4                      
  449  00000198  00257693    andi x15, x10, x001 | DL    | AN   | nop  | -   | E        RD:  0  RS:  0
  
                                                   00 00   00 00                                      
  450  0000019C  FFF70713    andi x13, x10, x002 | DL    | A    | RN   | nop | -        RD:  0  RS:  0
  
                                                   00 00   00 00                                      
  451  000001A0  00255513    addi x14, x14, xFFF | DL    | A    | R    | RN  | nop      RD:  0  RS:  0
  
                                                   00 00   00 00                                      
  452  000001A4  00078463    srli x10, x10, x002 | DL    | A    | R    | R   | EN       RD:  0  RS:  0
  
                                                   00 10   00 00               4        Pre: SE       
  453  000001A8  00060793     beq x15, x0 , x004 | DL    | A    | R    | R   | E        RD:  0  RS:  0
  
                                                   00 00   00 00                                CPr: E
  454  000001A8  00000013    addi x15, x12, x000 | DL    | CPr  | R    | R   | E        RD:  0  RS:  0
  
                                                   00 00   00 00                                      
  455  000001AC  00068463    addi x0 , x0 , x000 | DLN   | nop  | -    | R   | E        RD:  0  RS:  0
  
                                                   00 00   00 00                        Pre: SE       
  456  000001B0  00B787B3     beq x13, x0 , x004 | DL    | AN   | nop  | -   | E        RD:  0  RS:  0
  
                                                   00 00   00 00                                CPr: E
  457  000001B0  00000013     add x15, x15, x11  | DL    | CPr  | RN   | nop | -        RD:  0  RS:  0
  
                                                   00 00   00 00                                      
  458  000001B4  00F50533    addi x0 , x0 , x000 | DLN   | nop  | -    | RN  | nop      RD:  0  RS:  0
  
                                                   00 00   00 00                                      
  459  000001B8  FC071EE3     add x10, x10, x15  | DL    | AN   | nop  | -   | EN       RD:  0  RS:  0
  
                                                   00 00   00 00                        Pre: SE       
  460  000001BC  00C12083     bne x14, x0 , xFEE | DL    | A    | RN   | nop | -        RD:  0  RS:  0
  
                                                   00 00   00 00                                CPr: C
  461  000001B8  00812403      lw x1 , x00C(x2 ) | DL    | CPr  | R    | RN  | nop      RD:  0  RS:  0
  
                                                   00 00   00 00                                      
  462  000001BC  00C12083      lw x8 , x008(x2 ) | DL    | A    | -    | R   | EN       RD:  0  RS:  0
  
                                                   00 00   00 00                                      
  463  000001C0  00812403      lw x1 , x00C(x2 ) | DL    | A    | M    | -   | E        RD:  0  RS:  0
  
                                                   00 00   00 00                                      
  464  000001C4  01010113      lw x8 , x008(x2 ) | DL    | A    | M    | F   | -        RD:  0  RS:  0
  
                                                   00 00   00 00                                      
  465  000001C8  00008067    addi x2 , x2 , x010 | DL    | A    | M    | F   | E        RD:  0  RS:  0
  
                                                   00 01   00 00           3                          
  466  000001CC  00000013    jalr x0 , x000(x1 ) | DL    | A    | M    | F   | E        RD:  0  RS:  1
  
                                                   00 00   00 00                                      
  467  00000174  00000013    addi x0 , x0 , x000 | DLN   | A    | R    | F   | E        RD:  0  RS:  1
  
                                                   00 00   00 00                                      
  468  00000178  00E41613    addi x0 , x0 , x000 | DLN   | AN   | R    | R   | E        RD:  0  RS:  0
  
                                                   00 00   00 00                                      
  469  0000017C  3FFFC7B7    slli x12, x8 , x00E | DL    | AN   | RN   | R   | E        RD:  0  RS:  0
  
                                                   00 00   00 00                                      
  470  00000180  00F67633     lui x15, x3FFFC    | DL    | A    | RN   | RN  | E        RD:  0  RS:  0
  
                                                   00 00   00 00                                      
  471  00000184  01051513     and x12, x12, x15  | DL    | A    | R    | RN  | EN       RD:  0  RS:  0
  
                                                   00 00   01 10  1      2                            
  472  00000188  01055513    slli x10, x10, x010 | DL    | A    | R    | R   | EN       RD:  0  RS:  0
  
                                                   00 00   00 00                                      
  473  0000018C  00161593    srli x10, x10, x010 | DL    | A    | R    | R   | E        RD:  0  RS:  0
  
                                                   00 01   00 01  1        3                          
  474  00000190  00800713    slli x11, x12, x001 | DL    | A    | R    | R   | E        RD:  0  RS:  0
  
                                                   00 00   00 00                                      
  475  00000194  00157793    addi x14, x0 , x008 | DL    | A    | R    | R   | E        RD:  0  RS:  0
  
                                                   00 11   00 00           3   4                      
  476  00000198  00257693    andi x15, x10, x001 | DL    | A    | R    | R   | E        RD:  0  RS:  0
  
                                                   00 10   00 00               4                      
  477  0000019C  FFF70713    andi x13, x10, x002 | DL    | A    | R    | R   | E        RD:  0  RS:  0
  
                                                   00 01   00 00           3                          
  478  000001A0  00255513    addi x14, x14, xFFF | DL    | A    | R    | R   | E        RD:  0  RS:  0
  
                                                   00 00   00 00                                      
  479  000001A4  00078463    srli x10, x10, x002 | DL    | A    | R    | R   | E        RD:  0  RS:  0
  
                                                   00 10   00 00               4        Pre: SE       
  480  000001A8  00060793     beq x15, x0 , x004 | DL    | A    | R    | R   | E        RD:  0  RS:  0
  
                                                   00 00   00 00                                CPr: E
  481  000001A8  00000013    addi x15, x12, x000 | DL    | CPr  | R    | R   | E        RD:  0  RS:  0
  
                                                   00 00   00 00                                      
  482  000001AC  00068463    addi x0 , x0 , x000 | DLN   | nop  | -    | R   | E        RD:  0  RS:  0
  
                                                   00 00   00 00                        Pre: SE       
  483  000001B0  00B787B3     beq x13, x0 , x004 | DL    | AN   | nop  | -   | E        RD:  0  RS:  0
  
                                                   00 00   00 00                                CPr: E
  484  000001B0  00000013     add x15, x15, x11  | DL    | CPr  | RN   | nop | -        RD:  0  RS:  0
  
                                                   00 00   00 00                                      
  485  000001B4  00F50533    addi x0 , x0 , x000 | DLN   | nop  | -    | RN  | nop      RD:  0  RS:  0
  
                                                   00 00   00 00                                      
  486  000001B8  FC071EE3     add x10, x10, x15  | DL    | AN   | nop  | -   | EN       RD:  0  RS:  0
  
                                                   00 00   00 00                        Pre: SE       
  487  000001BC  00C12083     bne x14, x0 , xFEE | DL    | A    | RN   | nop | -        RD:  0  RS:  0
  
                                                   00 00   00 00                                CPr: E
  488  00000190  00000013      lw x1 , x00C(x2 ) | DL    | CPr  | R    | RN  | nop      RD:  0  RS:  0
  
                                                   00 00   00 00                                      
  489  00000194  00157793    addi x0 , x0 , x000 | DLN   | nop  | -    | R   | EN       RD:  0  RS:  0
  
                                                   00 10   00 00               4                      
  490  00000198  00257693    andi x15, x10, x001 | DL    | AN   | nop  | -   | E        RD:  0  RS:  0
  
                                                   00 00   00 00                                      
  491  0000019C  FFF70713    andi x13, x10, x002 | DL    | A    | RN   | nop | -        RD:  0  RS:  0
  
                                                   00 00   00 00                                      
  492  000001A0  00255513    addi x14, x14, xFFF | DL    | A    | R    | RN  | nop      RD:  0  RS:  0
  
                                                   00 00   00 00                                      
  493  000001A4  00078463    srli x10, x10, x002 | DL    | A    | R    | R   | EN       RD:  0  RS:  0
  
                                                   00 10   00 00               4        Pre: SE       
  494  000001A8  00060793     beq x15, x0 , x004 | DL    | A    | R    | R   | E        RD:  0  RS:  0
  
                                                   00 00   00 00                                CPr: E
  495  000001A8  00000013    addi x15, x12, x000 | DL    | CPr  | R    | R   | E        RD:  0  RS:  0
  
                                                   00 00   00 00                                      
  496  000001AC  00068463    addi x0 , x0 , x000 | DLN   | nop  | -    | R   | E        RD:  0  RS:  0
  
                                                   00 00   00 00                        Pre: SE       
  497  000001B0  00B787B3     beq x13, x0 , x004 | DL    | AN   | nop  | -   | E        RD:  0  RS:  0
  
                                                   00 00   00 00                                CPr: C
  498  000001B4  00F50533     add x15, x15, x11  | DL    | CPr  | RN   | nop | -        RD:  0  RS:  0
  
                                                   00 00   00 00                                      
  499  000001B8  FC071EE3     add x10, x10, x15  | DL    | A    | -    | RN  | nop      RD:  0  RS:  0
  
                                                   00 00   01 00  1                     Pre: SE       
  500  000001BC  00C12083     bne x14, x0 , xFEE | DL    | A    | R    | -   | EN       RD:  0  RS:  0
  
                                                   00 00   00 00                                CPr: E
  501  00000190  00000013      lw x1 , x00C(x2 ) | DL    | CPr  | R    | R   | -        RD:  0  RS:  0
  
                                                   00 00   00 00                                      
  502  00000194  00157793    addi x0 , x0 , x000 | DLN   | nop  | -    | R   | E        RD:  0  RS:  0
  
                                                   00 10   00 00               4                      
  503  00000198  00257693    andi x15, x10, x001 | DL    | AN   | nop  | -   | E        RD:  0  RS:  0
  
                                                   00 00   00 00                                      
  504  0000019C  FFF70713    andi x13, x10, x002 | DL    | A    | RN   | nop | -        RD:  0  RS:  0
  
                                                   00 00   00 00                                      
  505  000001A0  00255513    addi x14, x14, xFFF | DL    | A    | R    | RN  | nop      RD:  0  RS:  0
  
                                                   00 00   00 00                                      
  506  000001A4  00078463    srli x10, x10, x002 | DL    | A    | R    | R   | EN       RD:  0  RS:  0
  
                                                   00 10   00 00               4        Pre: SE       
  507  000001A8  00060793     beq x15, x0 , x004 | DL    | A    | R    | R   | E        RD:  0  RS:  0
  
                                                   00 00   00 00                                CPr: C
  508  000001AC  00068463    addi x15, x12, x000 | DL    | CPr  | R    | R   | E        RD:  0  RS:  0
  
                                                   00 00   00 00                        Pre: SE       
  509  000001B0  00B787B3     beq x13, x0 , x004 | DL    | A    | -    | R   | E        RD:  0  RS:  0
  
                                                   00 00   00 00                                CPr: E
  510  000001B0  00000013     add x15, x15, x11  | DL    | CPr  | R    | -   | E        RD:  0  RS:  0
  
                                                   00 00   00 10         2                            
  511  000001B4  00F50533    addi x0 , x0 , x000 | DLN   | nop  | -    | R   | -        RD:  0  RS:  0
  
                                                   10 00   00 00               4                      
  512  000001B8  FC071EE3     add x10, x10, x15  | DL    | AN   | nop  | -   | E        RD:  0  RS:  0
  
                                                   00 00   00 00                        Pre: SE       
  513  000001BC  00C12083     bne x14, x0 , xFEE | DL    | A    | RN   | nop | -        RD:  0  RS:  0
  
                                                   00 00   00 00                                CPr: E
  514  00000190  00000013      lw x1 , x00C(x2 ) | DL    | CPr  | R    | RN  | nop      RD:  0  RS:  0
  
                                                   00 00   00 00                                      
  515  00000194  00157793    addi x0 , x0 , x000 | DLN   | nop  | -    | R   | EN       RD:  0  RS:  0
  
                                                   00 10   00 00               4                      
  516  00000198  00257693    andi x15, x10, x001 | DL    | AN   | nop  | -   | E        RD:  0  RS:  0
  
                                                   00 00   00 00                                      
  517  0000019C  FFF70713    andi x13, x10, x002 | DL    | A    | RN   | nop | -        RD:  0  RS:  0
  
                                                   00 00   00 00                                      
  518  000001A0  00255513    addi x14, x14, xFFF | DL    | A    | R    | RN  | nop      RD:  0  RS:  0
  
                                                   00 00   00 00                                      
  519  000001A4  00078463    srli x10, x10, x002 | DL    | A    | R    | R   | EN       RD:  0  RS:  0
  
                                                   00 10   00 00               4        Pre: SE       
  520  000001A8  00060793     beq x15, x0 , x004 | DL    | A    | R    | R   | E        RD:  0  RS:  0
  
                                                   00 00   00 00                                CPr: E
  521  000001A8  00000013    addi x15, x12, x000 | DL    | CPr  | R    | R   | E        RD:  0  RS:  0
  
                                                   00 00   00 00                                      
  522  000001AC  00068463    addi x0 , x0 , x000 | DLN   | nop  | -    | R   | E        RD:  0  RS:  0
  
                                                   00 00   00 00                        Pre: SE       
  523  000001B0  00B787B3     beq x13, x0 , x004 | DL    | AN   | nop  | -   | E        RD:  0  RS:  0
  
                                                   00 00   00 00                                CPr: E
  524  000001B0  00000013     add x15, x15, x11  | DL    | CPr  | RN   | nop | -        RD:  0  RS:  0
  
                                                   00 00   00 00                                      
  525  000001B4  00F50533    addi x0 , x0 , x000 | DLN   | nop  | -    | RN  | nop      RD:  0  RS:  0
  
                                                   00 00   00 00                                      
  526  000001B8  FC071EE3     add x10, x10, x15  | DL    | AN   | nop  | -   | EN       RD:  0  RS:  0
  
                                                   00 00   00 00                        Pre: SE       
  527  000001BC  00C12083     bne x14, x0 , xFEE | DL    | A    | RN   | nop | -        RD:  0  RS:  0
  
                                                   00 00   00 00                                CPr: E
  528  00000190  00000013      lw x1 , x00C(x2 ) | DL    | CPr  | R    | RN  | nop      RD:  0  RS:  0
  
                                                   00 00   00 00                                      
  529  00000194  00157793    addi x0 , x0 , x000 | DLN   | nop  | -    | R   | EN       RD:  0  RS:  0
  
                                                   00 10   00 00               4                      
  530  00000198  00257693    andi x15, x10, x001 | DL    | AN   | nop  | -   | E        RD:  0  RS:  0
  
                                                   00 00   00 00                                      
  531  0000019C  FFF70713    andi x13, x10, x002 | DL    | A    | RN   | nop | -        RD:  0  RS:  0
  
                                                   00 00   00 00                                      
  532  000001A0  00255513    addi x14, x14, xFFF | DL    | A    | R    | RN  | nop      RD:  0  RS:  0
  
                                                   00 00   00 00                                      
  533  000001A4  00078463    srli x10, x10, x002 | DL    | A    | R    | R   | EN       RD:  0  RS:  0
  
                                                   00 10   00 00               4        Pre: SE       
  534  000001A8  00060793     beq x15, x0 , x004 | DL    | A    | R    | R   | E        RD:  0  RS:  0
  
                                                   00 00   00 00                                CPr: E
  535  000001A8  00000013    addi x15, x12, x000 | DL    | CPr  | R    | R   | E        RD:  0  RS:  0
  
                                                   00 00   00 00                                      
  536  000001AC  00068463    addi x0 , x0 , x000 | DLN   | nop  | -    | R   | E        RD:  0  RS:  0
  
                                                   00 00   00 00                        Pre: SE       
  537  000001B0  00B787B3     beq x13, x0 , x004 | DL    | AN   | nop  | -   | E        RD:  0  RS:  0
  
                                                   00 00   00 00                                CPr: E
  538  000001B0  00000013     add x15, x15, x11  | DL    | CPr  | RN   | nop | -        RD:  0  RS:  0
  
                                                   00 00   00 00                                      
  539  000001B4  00F50533    addi x0 , x0 , x000 | DLN   | nop  | -    | RN  | nop      RD:  0  RS:  0
  
                                                   00 00   00 00                                      
  540  000001B8  FC071EE3     add x10, x10, x15  | DL    | AN   | nop  | -   | EN       RD:  0  RS:  0
  
                                                   00 00   00 00                        Pre: SE       
  541  000001BC  00C12083     bne x14, x0 , xFEE | DL    | A    | RN   | nop | -        RD:  0  RS:  0
  
                                                   00 00   00 00                                CPr: E
  542  00000190  00000013      lw x1 , x00C(x2 ) | DL    | CPr  | R    | RN  | nop      RD:  0  RS:  0
  
                                                   00 00   00 00                                      
  543  00000194  00157793    addi x0 , x0 , x000 | DLN   | nop  | -    | R   | EN       RD:  0  RS:  0
  
                                                   00 10   00 00               4                      
  544  00000198  00257693    andi x15, x10, x001 | DL    | AN   | nop  | -   | E        RD:  0  RS:  0
  
                                                   00 00   00 00                                      
  545  0000019C  FFF70713    andi x13, x10, x002 | DL    | A    | RN   | nop | -        RD:  0  RS:  0
  
                                                   00 00   00 00                                      
  546  000001A0  00255513    addi x14, x14, xFFF | DL    | A    | R    | RN  | nop      RD:  0  RS:  0
  
                                                   00 00   00 00                                      
  547  000001A4  00078463    srli x10, x10, x002 | DL    | A    | R    | R   | EN       RD:  0  RS:  0
  
                                                   00 10   00 00               4        Pre: SE       
  548  000001A8  00060793     beq x15, x0 , x004 | DL    | A    | R    | R   | E        RD:  0  RS:  0
  
                                                   00 00   00 00                                CPr: E
  549  000001A8  00000013    addi x15, x12, x000 | DL    | CPr  | R    | R   | E        RD:  0  RS:  0
  
                                                   00 00   00 00                                      
  550  000001AC  00068463    addi x0 , x0 , x000 | DLN   | nop  | -    | R   | E        RD:  0  RS:  0
  
                                                   00 00   00 00                        Pre: SE       
  551  000001B0  00B787B3     beq x13, x0 , x004 | DL    | AN   | nop  | -   | E        RD:  0  RS:  0
  
                                                   00 00   00 00                                CPr: E
  552  000001B0  00000013     add x15, x15, x11  | DL    | CPr  | RN   | nop | -        RD:  0  RS:  0
  
                                                   00 00   00 00                                      
  553  000001B4  00F50533    addi x0 , x0 , x000 | DLN   | nop  | -    | RN  | nop      RD:  0  RS:  0
  
                                                   00 00   00 00                                      
  554  000001B8  FC071EE3     add x10, x10, x15  | DL    | AN   | nop  | -   | EN       RD:  0  RS:  0
  
                                                   00 00   00 00                        Pre: SE       
  555  000001BC  00C12083     bne x14, x0 , xFEE | DL    | A    | RN   | nop | -        RD:  0  RS:  0
  
                                                   00 00   00 00                                CPr: E
  556  00000190  00000013      lw x1 , x00C(x2 ) | DL    | CPr  | R    | RN  | nop      RD:  0  RS:  0
  
                                                   00 00   00 00                                      
  557  00000194  00157793    addi x0 , x0 , x000 | DLN   | nop  | -    | R   | EN       RD:  0  RS:  0
  
                                                   00 10   00 00               4                      
  558  00000198  00257693    andi x15, x10, x001 | DL    | AN   | nop  | -   | E        RD:  0  RS:  0
  
                                                   00 00   00 00                                      
  559  0000019C  FFF70713    andi x13, x10, x002 | DL    | A    | RN   | nop | -        RD:  0  RS:  0
  
                                                   00 00   00 00                                      
  560  000001A0  00255513    addi x14, x14, xFFF | DL    | A    | R    | RN  | nop      RD:  0  RS:  0
  
                                                   00 00   00 00                                      
  561  000001A4  00078463    srli x10, x10, x002 | DL    | A    | R    | R   | EN       RD:  0  RS:  0
  
                                                   00 10   00 00               4        Pre: SE       
  562  000001A8  00060793     beq x15, x0 , x004 | DL    | A    | R    | R   | E        RD:  0  RS:  0
  
                                                   00 00   00 00                                CPr: E
  563  000001A8  00000013    addi x15, x12, x000 | DL    | CPr  | R    | R   | E        RD:  0  RS:  0
  
                                                   00 00   00 00                                      
  564  000001AC  00068463    addi x0 , x0 , x000 | DLN   | nop  | -    | R   | E        RD:  0  RS:  0
  
                                                   00 00   00 00                        Pre: SE       
  565  000001B0  00B787B3     beq x13, x0 , x004 | DL    | AN   | nop  | -   | E        RD:  0  RS:  0
  
                                                   00 00   00 00                                CPr: E
  566  000001B0  00000013     add x15, x15, x11  | DL    | CPr  | RN   | nop | -        RD:  0  RS:  0
  
                                                   00 00   00 00                                      
  567  000001B4  00F50533    addi x0 , x0 , x000 | DLN   | nop  | -    | RN  | nop      RD:  0  RS:  0
  
                                                   00 00   00 00                                      
  568  000001B8  FC071EE3     add x10, x10, x15  | DL    | AN   | nop  | -   | EN       RD:  0  RS:  0
  
                                                   00 00   00 00                        Pre: SE       
  569  000001BC  00C12083     bne x14, x0 , xFEE | DL    | A    | RN   | nop | -        RD:  0  RS:  0
  
                                                   00 00   00 00                                CPr: E
  570  00000190  00000013      lw x1 , x00C(x2 ) | DL    | CPr  | R    | RN  | nop      RD:  0  RS:  0
  
                                                   00 00   00 00                                      
  571  00000194  00157793    addi x0 , x0 , x000 | DLN   | nop  | -    | R   | EN       RD:  0  RS:  0
  
                                                   00 10   00 00               4                      
  572  00000198  00257693    andi x15, x10, x001 | DL    | AN   | nop  | -   | E        RD:  0  RS:  0
  
                                                   00 00   00 00                                      
  573  0000019C  FFF70713    andi x13, x10, x002 | DL    | A    | RN   | nop | -        RD:  0  RS:  0
  
                                                   00 00   00 00                                      
  574  000001A0  00255513    addi x14, x14, xFFF | DL    | A    | R    | RN  | nop      RD:  0  RS:  0
  
                                                   00 00   00 00                                      
  575  000001A4  00078463    srli x10, x10, x002 | DL    | A    | R    | R   | EN       RD:  0  RS:  0
  
                                                   00 10   00 00               4        Pre: SE       
  576  000001A8  00060793     beq x15, x0 , x004 | DL    | A    | R    | R   | E        RD:  0  RS:  0
  
                                                   00 00   00 00                                CPr: E
  577  000001A8  00000013    addi x15, x12, x000 | DL    | CPr  | R    | R   | E        RD:  0  RS:  0
  
                                                   00 00   00 00                                      
  578  000001AC  00068463    addi x0 , x0 , x000 | DLN   | nop  | -    | R   | E        RD:  0  RS:  0
  
                                                   00 00   00 00                        Pre: SE       
  579  000001B0  00B787B3     beq x13, x0 , x004 | DL    | AN   | nop  | -   | E        RD:  0  RS:  0
  
                                                   00 00   00 00                                CPr: E
  580  000001B0  00000013     add x15, x15, x11  | DL    | CPr  | RN   | nop | -        RD:  0  RS:  0
  
                                                   00 00   00 00                                      
  581  000001B4  00F50533    addi x0 , x0 , x000 | DLN   | nop  | -    | RN  | nop      RD:  0  RS:  0
  
                                                   00 00   00 00                                      
  582  000001B8  FC071EE3     add x10, x10, x15  | DL    | AN   | nop  | -   | EN       RD:  0  RS:  0
  
                                                   00 00   00 00                        Pre: SE       
  583  000001BC  00C12083     bne x14, x0 , xFEE | DL    | A    | RN   | nop | -        RD:  0  RS:  0
  
                                                   00 00   00 00                                CPr: C
  584  000001B8  00812403      lw x1 , x00C(x2 ) | DL    | CPr  | R    | RN  | nop      RD:  0  RS:  0
  
                                                   00 00   00 00                                      
  585  000001BC  00C12083      lw x8 , x008(x2 ) | DL    | A    | -    | R   | EN       RD:  0  RS:  0
  
                                                   00 00   00 00                                      
  586  000001C0  00812403      lw x1 , x00C(x2 ) | DL    | A    | M    | -   | E        RD:  0  RS:  0
  
                                                   00 00   00 00                                      
  587  000001C4  01010113      lw x8 , x008(x2 ) | DL    | A    | M    | F   | -        RD:  0  RS:  0
  
                                                   00 00   00 00                                      
  588  000001C8  00008067    addi x2 , x2 , x010 | DL    | A    | M    | F   | E        RD:  0  RS:  0
  
                                                   00 01   00 00           3                          
  589  000001CC  00000013    jalr x0 , x000(x1 ) | DL    | A    | M    | F   | E        RD:  0  RS:  1
  
                                                   00 00   00 00                                      
  590  000001E4  00000013    addi x0 , x0 , x000 | DLN   | A    | R    | F   | E        RD:  0  RS:  1
  
                                                   00 00   00 00                                      
  591  000001E8  00C12083    addi x0 , x0 , x000 | DLN   | AN   | R    | R   | E        RD:  0  RS:  0
  
                                                   00 10   00 00               4                      
  592  000001EC  10000737      lw x1 , x00C(x2 ) | DL    | AN   | RN   | R   | E        RD:  0  RS:  0
  
                                                   00 00   00 00                                      
  593  000001F0  00A72223     lui x14, x10000    | DL    | A    | RN   | RN  | E        RD:  0  RS:  0
  
                                                   00 00   00 00                                      
  594  000001F4  00000513      sw x10, x004(x14) | DL    | A    | M    | RN  | EN       RD:  0  RS:  0
  
                                                   00 00   00 01  1                                   
  595  000001F8  01010113    addi x10, x0 , x000 | DL    | A    | R    | F   | EN       RD:  0  RS:  0
  
                                                   00 00   00 00                                      
  596  000001FC  00008067    addi x2 , x2 , x010 | DL    | A    | M    | R   | E        RD:  0  RS:  0
  
                                                   00 00   00 00                                      
  597  00000200  00000013    jalr x0 , x000(x1 ) | DL    | A    | R    | -   | E        RD:  0  RS:  1
  
                                                   00 00   00 00                                      
  598  00000088  00000013    addi x0 , x0 , x000 | DLN   | A    | R    | R     -        RD:  0  RS:  1
  
                                                   00 00   00 00                                      
  599  0000008C  00000013    addi x0 , x0 , x000 | DLN   | AN   | R    | R   | E        RD:  0  RS:  0
  
                                                   00 00   00 00                                      
  600  00000090  00000013    addi x0 , x0 , x000 | DL    | AN   | RN   | R   | E        RD:  0  RS:  0
  
                                                   00 00   00 00                                      
  601  00000094  00000013    addi x0 , x0 , x000 | DL    | A    | RN   | RN  | E        RD:  0  RS:  0
  
                                                   00 00   00 00                                      
  602  00000098  00000013    addi x0 , x0 , x000 | DL    | A    | R    | RN  | EN       RD:  0  RS:  0
  
                                                   00 00   00 00                                      
  603  0000009C  00000013    addi x0 , x0 , x000 | DL    | A    | R    | R   | EN       RD:  0  RS:  0
  
                                                   00 00   00 00                                      
  604  000000A0  00100073    addi x0 , x0 , x000 | DL    | A    | R    | R   | E        RD:  0  RS:  0
  
                                                   00 00   00 00                                      
  605  000000A4  00000000          ebreak        | DL    | A    | R    | R   | E        RD:  0  RS:  0

 Contenido de la memoria de datos. MD

dir/16  hexadecimal
         (dir mod 16)/4  binario
            dir mod 4  binario
                          contenido  hexadecimal
 31 : 4 3:2     1:0     31:24  . . 7:0   bits de direction y contenido
 1000000 00 11 10 01 00   00 00 00 05
 1000000 01 11 10 01 00   00 00 00 78
 1000000 10 11 10 01 00   00 00 00 00
 . . . . . . . . .
 10000F9 01 11 10 01 00   00 00 00 00
 10000F9 10 11 10 01 00   00 00 00 03
 10000F9 11 11 10 01 00   00 00 01 74
 10000FA 00 11 10 01 00   00 00 00 00
 10000FA 01 11 10 01 00   00 00 00 00
 10000FA 10 11 10 01 00   00 00 00 04
 10000FA 11 11 10 01 00   00 00 01 74
 10000FB 00 11 10 01 00   00 00 00 00
 10000FB 01 11 10 01 00   00 00 00 00
 10000FB 10 11 10 01 00   00 00 00 05
 10000FB 11 11 10 01 00   00 00 01 74
 10000FC 00 11 10 01 00   00 00 00 00
 . . . . . . . . .
 10000FC 10 11 10 01 00   00 00 00 00
 10000FC 11 11 10 01 00   00 00 01 E4
 10000FD 00 11 10 01 00   00 00 00 00
 . . . . . . . . .
 10000FD 10 11 10 01 00   00 00 00 00
 10000FD 11 11 10 01 00   00 00 00 88
 10000FE 00 11 10 01 00   00 00 00 00

 Contenido de la memoria de instrucciones. MI

dir/16  hexadecimal
         (dir mod 16)/4  binario
            dir mod 4  binario
                          contenido  hexadecimal
 31 : 4 3:2     1:0     31:24  . . 7:0   bits de direction y contenido
 0000000 00 11 10 01 00   10 00 11 17   auipc x2 , x10001   
 0000000 01 11 10 01 00   00 01 01 13    addi x2 , x2 , x000
 0000000 10 11 10 01 00   FE 01 01 13    addi x2 , x2 , xFE0
 0000000 11 11 10 01 00   00 00 00 B3     add x1 , x0 , x0  
 0000001 00 11 10 01 00   00 00 01 B3     add x3 , x0 , x0  
 0000001 01 11 10 01 00   00 00 02 33     add x4 , x0 , x0  
 0000001 10 11 10 01 00   00 00 02 B3     add x5 , x0 , x0  
 0000001 11 11 10 01 00   00 00 03 33     add x6 , x0 , x0  
 0000002 00 11 10 01 00   00 00 03 B3     add x7 , x0 , x0  
 0000002 01 11 10 01 00   00 00 04 33     add x8 , x0 , x0  
 0000002 10 11 10 01 00   00 00 04 B3     add x9 , x0 , x0  
 0000002 11 11 10 01 00   00 00 05 33     add x10, x0 , x0  
 0000003 00 11 10 01 00   00 00 05 B3     add x11, x0 , x0  
 0000003 01 11 10 01 00   00 00 06 33     add x12, x0 , x0  
 0000003 10 11 10 01 00   00 00 06 B3     add x13, x0 , x0  
 0000003 11 11 10 01 00   00 00 07 33     add x14, x0 , x0  
 0000004 00 11 10 01 00   00 00 07 B3     add x15, x0 , x0  
 0000004 01 11 10 01 00   00 00 08 33     add x16, x0 , x0  
 0000004 10 11 10 01 00   00 00 08 B3     add x17, x0 , x0  
 0000004 11 11 10 01 00   00 00 09 33     add x18, x0 , x0  
 0000005 00 11 10 01 00   00 00 09 B3     add x19, x0 , x0  
 0000005 01 11 10 01 00   00 00 0A 33     add x20, x0 , x0  
 0000005 10 11 10 01 00   00 00 0A B3     add x21, x0 , x0  
 0000005 11 11 10 01 00   00 00 0B 33     add x22, x0 , x0  
 0000006 00 11 10 01 00   00 00 0B B3     add x23, x0 , x0  
 0000006 01 11 10 01 00   00 00 0C 33     add x24, x0 , x0  
 0000006 10 11 10 01 00   00 00 0C B3     add x25, x0 , x0  
 0000006 11 11 10 01 00   00 00 0D 33     add x26, x0 , x0  
 0000007 00 11 10 01 00   00 00 0D B3     add x27, x0 , x0  
 0000007 01 11 10 01 00   00 00 0E 33     add x28, x0 , x0  
 0000007 10 11 10 01 00   00 00 0E B3     add x29, x0 , x0  
 0000007 11 11 10 01 00   00 00 0F 33     add x30, x0 , x0  
 0000008 00 11 10 01 00   00 00 0F B3     add x31, x0 , x0  
 0000008 01 11 10 01 00   14 40 00 EF     jal x1 ,    x000A2
 0000008 10 11 10 01 00   00 00 00 13    addi x0 , x0 , x000
 . . . . . . . . .
 0000009 10 11 10 01 00   00 00 00 13    addi x0 , x0 , x000
 0000009 11 11 10 01 00   00 10 00 73          ebreak       
 000000A 00 11 10 01 00   00 00 00 00     XXX
 . . . . . . . . .
 000000F 11 11 10 01 00   00 00 00 00     XXX
 0000010 00 11 10 01 00   00 E5 15 13    slli x10, x10, x00E
 0000010 01 11 10 01 00   3F FF C6 37     lui x12, x3FFFC   
 0000010 10 11 10 01 00   00 C5 76 33     and x12, x10, x12 
 0000010 11 11 10 01 00   01 05 95 13    slli x10, x11, x010
 0000011 00 11 10 01 00   01 05 55 13    srli x10, x10, x010
 0000011 01 11 10 01 00   00 16 15 93    slli x11, x12, x001
 0000011 10 11 10 01 00   00 80 07 13    addi x14, x0 , x008
 0000011 11 11 10 01 00   00 15 77 93    andi x15, x10, x001
 0000012 00 11 10 01 00   00 25 76 93    andi x13, x10, x002
 0000012 01 11 10 01 00   FF F7 07 13    addi x14, x14, xFFF
 0000012 10 11 10 01 00   00 25 55 13    srli x10, x10, x002
 0000012 11 11 10 01 00   00 07 84 63     beq x15, x0 , x004
 0000013 00 11 10 01 00   00 06 07 93    addi x15, x12, x000
 0000013 01 11 10 01 00   00 06 84 63     beq x13, x0 , x004
 0000013 10 11 10 01 00   00 B7 87 B3     add x15, x15, x11 
 0000013 11 11 10 01 00   00 A7 85 33     add x10, x15, x10 
 0000014 00 11 10 01 00   FC 07 1E E3     bne x14, x0 , xFEE
 0000014 01 11 10 01 00   00 00 80 67    jalr x0 , x000(x1 )
 0000014 10 11 10 01 00   00 10 07 93    addi x15, x0 , x001
 0000014 11 11 10 01 00   00 A7 E6 63    bltu x15, x10, x006
 0000015 00 11 10 01 00   00 10 05 13    addi x10, x0 , x001
 0000015 01 11 10 01 00   00 00 80 67    jalr x0 , x000(x1 )
 0000015 10 11 10 01 00   00 40 00 6F     jal x0 ,    x00002
 0000015 11 11 10 01 00   FF 01 01 13    addi x2 , x2 , xFF0
 0000016 00 11 10 01 00   00 81 24 23      sw x8 , x008(x2 )
 0000016 01 11 10 01 00   00 05 04 13    addi x8 , x10, x000
 0000016 10 11 10 01 00   FF F5 05 13    addi x10, x10, xFFF
 0000016 11 11 10 01 00   00 11 26 23      sw x1 , x00C(x2 )
 0000017 00 11 10 01 00   FD 9F F0 EF     jal x1 ,    xFFFEC
 0000017 01 11 10 01 00   00 E4 16 13    slli x12, x8 , x00E
 0000017 10 11 10 01 00   3F FF C7 B7     lui x15, x3FFFC   
 0000017 11 11 10 01 00   00 F6 76 33     and x12, x12, x15 
 0000018 00 11 10 01 00   01 05 15 13    slli x10, x10, x010
 0000018 01 11 10 01 00   01 05 55 13    srli x10, x10, x010
 0000018 10 11 10 01 00   00 16 15 93    slli x11, x12, x001
 0000018 11 11 10 01 00   00 80 07 13    addi x14, x0 , x008
 0000019 00 11 10 01 00   00 15 77 93    andi x15, x10, x001
 0000019 01 11 10 01 00   00 25 76 93    andi x13, x10, x002
 0000019 10 11 10 01 00   FF F7 07 13    addi x14, x14, xFFF
 0000019 11 11 10 01 00   00 25 55 13    srli x10, x10, x002
 000001A 00 11 10 01 00   00 07 84 63     beq x15, x0 , x004
 000001A 01 11 10 01 00   00 06 07 93    addi x15, x12, x000
 000001A 10 11 10 01 00   00 06 84 63     beq x13, x0 , x004
 000001A 11 11 10 01 00   00 B7 87 B3     add x15, x15, x11 
 000001B 00 11 10 01 00   00 F5 05 33     add x10, x10, x15 
 000001B 01 11 10 01 00   FC 07 1E E3     bne x14, x0 , xFEE
 000001B 10 11 10 01 00   00 C1 20 83      lw x1 , x00C(x2 )
 000001B 11 11 10 01 00   00 81 24 03      lw x8 , x008(x2 )
 000001C 00 11 10 01 00   01 01 01 13    addi x2 , x2 , x010
 000001C 01 11 10 01 00   00 00 80 67    jalr x0 , x000(x1 )
 000001C 10 11 10 01 00   10 00 07 B7     lui x15, x10000   
 000001C 11 11 10 01 00   00 07 A5 03      lw x10, x000(x15)
 000001D 00 11 10 01 00   00 10 07 93    addi x15, x0 , x001
 000001D 01 11 10 01 00   02 A7 F4 63    bgeu x15, x10, x014
 000001D 10 11 10 01 00   FF 01 01 13    addi x2 , x2 , xFF0
 000001D 11 11 10 01 00   00 11 26 23      sw x1 , x00C(x2 )
 000001E 00 11 10 01 00   F7 DF F0 EF     jal x1 ,    xFFFBE
 000001E 01 11 10 01 00   00 C1 20 83      lw x1 , x00C(x2 )
 000001E 10 11 10 01 00   10 00 07 37     lui x14, x10000   
 000001E 11 11 10 01 00   00 A7 22 23      sw x10, x004(x14)
 000001F 00 11 10 01 00   00 00 05 13    addi x10, x0 , x000
 000001F 01 11 10 01 00   01 01 01 13    addi x2 , x2 , x010
 000001F 10 11 10 01 00   00 00 80 67    jalr x0 , x000(x1 )
 000001F 11 11 10 01 00   10 00 07 37     lui x14, x10000   
 0000020 00 11 10 01 00   00 F7 22 23      sw x15, x004(x14)
 0000020 01 11 10 01 00   00 00 05 13    addi x10, x0 , x000
 0000020 10 11 10 01 00   00 00 80 67    jalr x0 , x000(x1 )
 0000020 11 11 10 01 00   00 00 00 00     XXX

 Contenido del banco de registros. BR

Num registro decimal
      contenido  hexadecimal
     31:24  . . 7:0     bits de contenido
   0   00 00 00 00
   1   00 00 00 88
   2   10 00 0F E0
   3   00 00 00 00
 . . . . . . . . .
  10   00 00 00 00
  11   00 02 80 00
  12   00 01 40 00
  13   00 00 00 00
  14   10 00 00 00
  15   00 00 00 00
